(dp1
S'output'
p2
S'<class \'pyodbc.ProgrammingError\'> (\'42601\', \'[42601] [IBM][CLI Driver][DB2/NT64] SQL0104N  An unexpected token "year FROM CURSOS_ALUNOS.DT_CONCLUSAO" was found following "UNOS WHERE (EXTRACT(".  Expected tokens may include:  "<space>".  SQLSTATE=42601\\n (-104) (SQLExecDirectW)\')'
p3
sS'layer'
p4
S'/home/www-data/web2py/applications/api/controllers/default.py'
p5
sS'code'
p6
S'# -*- coding: utf-8 -*-\n# this file is released under public domain and you can use without limitations\n\n#########################################################################\n## This is a sample controller\n## - index is the default action of any application\n## - user is required for authentication and authorization\n## - download is for downloading files uploaded in the db (does streaming)\n## - call exposes all registered services (none by default)\n#########################################################################\n\n@auth.requires_login()\ndef index():\n    return dict()\n\n@request.restful()\ndef rest():\n    response.view = \'generic.\'+request.extension\n    def GET(*args,**vars):\n        patterns = \'auto\'\n        parser = dbSie.parse_as_rest(patterns,args,vars)\n        if parser.status == 200:\n            return dict(content=parser.response)\n        else:\n            raise HTTP(parser.status,parser.error)\n\n    return locals()\n\n\ndef user():\n    """\n    exposes:\n    http://..../[app]/default/user/login\n    http://..../[app]/default/user/logout\n    http://..../[app]/default/user/register\n    http://..../[app]/default/user/profile\n    http://..../[app]/default/user/retrieve_password\n    http://..../[app]/default/user/change_password\n    http://..../[app]/default/user/manage_users (requires membership in\n    use @auth.requires_login()\n        @auth.requires_membership(\'group name\')\n        @auth.requires_permission(\'read\',\'table name\',record_id)\n    to decorate functions that need access control\n    """\n    return dict(form=auth())\n\n@cache.action()\ndef download():\n    """\n    allows downloading of uploaded files\n    http://..../[app]/default/download/[filename]\n    """\n    return response.download(request, db)\n\n\ndef call():\n    """\n    exposes services. for example:\n    http://..../[app]/default/call/jsonrpc\n    decorate with @services.jsonrpc the functions to expose\n    supports xml, json, xmlrpc, jsonrpc, amfrpc, rss, csv\n    """\n    return service()\n\n\n@auth.requires_signature()\ndef data():\n    """\n    http://..../[app]/default/data/tables\n    http://..../[app]/default/data/create/[table]\n    http://..../[app]/default/data/read/[table]/[id]\n    http://..../[app]/default/data/update/[table]/[id]\n    http://..../[app]/default/data/delete/[table]/[id]\n    http://..../[app]/default/data/select/[table]\n    http://..../[app]/default/data/search/[table]\n    but URLs must be signed, i.e. linked with\n      A(\'table\',_href=URL(\'data/tables\',user_signature=True))\n    or with the signed load operator\n      LOAD(\'default\',\'data.load\',args=\'tables\',ajax=True,user_signature=True)\n    """\n    return dict(form=crud())\n\nresponse._vars=response._caller(rest)\n'
p7
sS'snapshot'
p8
(dp9
S'exception'
p10
(dp11
S'__module__'
p12
S"'pyodbc'"
p13
sS'__getslice__'
p14
S"<method-wrapper '__getslice__' of ProgrammingError object>"
p15
sS'__str__'
p16
S"<method-wrapper '__str__' of ProgrammingError object>"
p17
sS'__reduce__'
p18
S'<built-in method __reduce__ of ProgrammingError object>'
p19
sS'__dict__'
p20
S'{}'
p21
sS'__sizeof__'
p22
S'<built-in method __sizeof__ of ProgrammingError object>'
p23
sS'__weakref__'
p24
S'None'
p25
sS'__init__'
p26
S"<method-wrapper '__init__' of ProgrammingError object>"
p27
sS'__setattr__'
p28
S"<method-wrapper '__setattr__' of ProgrammingError object>"
p29
sS'__reduce_ex__'
p30
S'<built-in method __reduce_ex__ of ProgrammingError object>'
p31
sS'__new__'
p32
S'<built-in method __new__ of type object>'
p33
sS'__format__'
p34
S'<built-in method __format__ of ProgrammingError object>'
p35
sS'__class__'
p36
S"<class 'pyodbc.ProgrammingError'>"
p37
sS'__doc__'
p38
S"'Exception raised for programming errors, e.g. ta...ement, wrong number of parameters\\nspecified, etc.'"
p39
sS'__getitem__'
p40
S"<method-wrapper '__getitem__' of ProgrammingError object>"
p41
sS'__setstate__'
p42
S'<built-in method __setstate__ of ProgrammingError object>'
p43
sS'__getattribute__'
p44
S"<method-wrapper '__getattribute__' of ProgrammingError object>"
p45
sS'args'
p46
S'(\'42601\', \'[42601] [IBM][CLI Driver][DB2/NT64] SQL0104N  An...space>".  SQLSTATE=42601\\n (-104) (SQLExecDirectW)\')'
p47
sS'__subclasshook__'
p48
S'<built-in method __subclasshook__ of type object>'
p49
sS'__unicode__'
p50
S'<built-in method __unicode__ of ProgrammingError object>'
p51
sS'__delattr__'
p52
S"<method-wrapper '__delattr__' of ProgrammingError object>"
p53
sS'__repr__'
p54
S"<method-wrapper '__repr__' of ProgrammingError object>"
p55
sS'__hash__'
p56
S"<method-wrapper '__hash__' of ProgrammingError object>"
p57
ssS'evalue'
p58
S'(\'42601\', \'[42601] [IBM][CLI Driver][DB2/NT64] SQL0104N  An unexpected token "year FROM CURSOS_ALUNOS.DT_CONCLUSAO" was found following "UNOS WHERE (EXTRACT(".  Expected tokens may include:  "<space>".  SQLSTATE=42601\\n (-104) (SQLExecDirectW)\')'
p59
sS'request'
p60
cgluon.html
XML_unpickle
p61
(S's\x10[\x00\x00<div><table><tr><td style="font-weight:bold;vertical-align:top;">ajax</td><td style="vertical-align:top;">:</td><td><div>False</div></td></tr><tr><td style="font-weight:bold;vertical-align:top;">application</td><td style="vertical-align:top;">:</td><td><div>api</div></td></tr><tr><td style="font-weight:bold;vertical-align:top;">args</td><td style="vertical-align:top;">:</td><td><div><table><tr><td><div>CURSOS-ALUNOS</div></td></tr><tr><td><div>DT-CONCLUSAO</div></td></tr><tr><td><div>2014</div></td></tr></table></div></td></tr><tr><td style="font-weight:bold;vertical-align:top;">cid</td><td style="vertical-align:top;">:</td><td><div>None</div></td></tr><tr><td style="font-weight:bold;vertical-align:top;">client</td><td style="vertical-align:top;">:</td><td><div>187.105.50.69</div></td></tr><tr><td style="font-weight:bold;vertical-align:top;">controller</td><td style="vertical-align:top;">:</td><td><div>default</div></td></tr><tr><td style="font-weight:bold;vertical-align:top;">cookies</td><td style="vertical-align:top;">:</td><td><div><table><tr><td style="font-weight:bold;vertical-align:top;">session_id_api</td><td style="vertical-align:top;">:</td><td><div>200.156.24.244-386283b1-715e-4852-a513-7e9d6ddaee50<table><tr><td style="font-weight:bold;vertical-align:top;">comment</td><td style="vertical-align:top;">:</td><td><div></div></td></tr><tr><td style="font-weight:bold;vertical-align:top;">domain</td><td style="vertical-align:top;">:</td><td><div></div></td></tr><tr><td style="font-weight:bold;vertical-align:top;">expires</td><td style="vertical-align:top;">:</td><td><div></div></td></tr><tr><td style="font-weight:bold;vertical-align:top;">httponly</td><td style="vertical-align:top;">:</td><td><div></div></td></tr><tr><td style="font-weight:bold;vertical-align:top;">max-age</td><td style="vertical-align:top;">:</td><td><div></div></td></tr><tr><td style="font-weight:bold;vertical-align:top;">path</td><td style="vertical-align:top;">:</td><td><div></div></td></tr><tr><td style="font-weight:bold;vertical-align:top;">secure</td><td style="vertical-align:top;">:</td><td><div></div></td></tr><tr><td style="font-weight:bold;vertical-align:top;">version</td><td style="vertical-align:top;">:</td><td><div></div></td></tr></table></div></td></tr></table></div></td></tr><tr><td style="font-weight:bold;vertical-align:top;">env</td><td style="vertical-align:top;">:</td><td><div><table><tr><td style="font-weight:bold;vertical-align:top;">DOCUMENT_ROOT</td><td style="vertical-align:top;">:</td><td><div>/etc/apache2/htdocs</div></td></tr><tr><td style="font-weight:bold;vertical-align:top;">GATEWAY_INTERFACE</td><td style="vertical-align:top;">:</td><td><div>CGI/1.1</div></td></tr><tr><td style="font-weight:bold;vertical-align:top;">HTTP_ACCEPT</td><td style="vertical-align:top;">:</td><td><div>text/html,application/xhtml+xml,application/xml;q=0.9,image/webp,*/*;q=0.8</div></td></tr><tr><td style="font-weight:bold;vertical-align:top;">HTTP_ACCEPT_ENCODING</td><td style="vertical-align:top;">:</td><td><div>gzip,deflate,sdch</div></td></tr><tr><td style="font-weight:bold;vertical-align:top;">HTTP_ACCEPT_LANGUAGE</td><td style="vertical-align:top;">:</td><td><div>pt-BR,pt;q=0.8,en-US;q=0.6,en;q=0.4</div></td></tr><tr><td style="font-weight:bold;vertical-align:top;">HTTP_CONNECTION</td><td style="vertical-align:top;">:</td><td><div>keep-alive</div></td></tr><tr><td style="font-weight:bold;vertical-align:top;">HTTP_COOKIE</td><td style="vertical-align:top;">:</td><td><div>__utma=91351262.17937699.1371429018.1376765339.1376769892.4; _ga=GA1.2.17937699.1371429018; session_id_api=200.156.24.244-386283b1-715e-4852-a513-7e9d6ddaee50</div></td></tr><tr><td style="font-weight:bold;vertical-align:top;">HTTP_HOST</td><td style="vertical-align:top;">:</td><td><div>sistemas.unirio.br</div></td></tr><tr><td style="font-weight:bold;vertical-align:top;">HTTP_USER_AGENT</td><td style="vertical-align:top;">:</td><td><div>Mozilla/5.0 (Windows NT 6.1; WOW64) AppleWebKit/537.36 (KHTML, like Gecko) Chrome/36.0.1985.125 Safari/537.36</div></td></tr><tr><td style="font-weight:bold;vertical-align:top;">PATH_INFO</td><td style="vertical-align:top;">:</td><td><div>/api/default/rest/CURSOS-ALUNOS/DT-CONCLUSAO/2014</div></td></tr><tr><td style="font-weight:bold;vertical-align:top;">PATH_TRANSLATED</td><td style="vertical-align:top;">:</td><td><div>/home/www-data/web2py/wsgihandler.py/api/default/rest/CURSOS-ALUNOS/DT-CONCLUSAO/2014</div></td></tr><tr><td style="font-weight:bold;vertical-align:top;">QUERY_STRING</td><td style="vertical-align:top;">:</td><td><div></div></td></tr><tr><td style="font-weight:bold;vertical-align:top;">REMOTE_ADDR</td><td style="vertical-align:top;">:</td><td><div>187.105.50.69</div></td></tr><tr><td style="font-weight:bold;vertical-align:top;">REMOTE_PORT</td><td style="vertical-align:top;">:</td><td><div>40721</div></td></tr><tr><td style="font-weight:bold;vertical-align:top;">REQUEST_METHOD</td><td style="vertical-align:top;">:</td><td><div>GET</div></td></tr><tr><td style="font-weight:bold;vertical-align:top;">REQUEST_URI</td><td style="vertical-align:top;">:</td><td><div>/api/default/rest/CURSOS-ALUNOS/DT-CONCLUSAO/2014</div></td></tr><tr><td style="font-weight:bold;vertical-align:top;">SCRIPT_FILENAME</td><td style="vertical-align:top;">:</td><td><div>/home/www-data/web2py/wsgihandler.py</div></td></tr><tr><td style="font-weight:bold;vertical-align:top;">SCRIPT_NAME</td><td style="vertical-align:top;">:</td><td><div></div></td></tr><tr><td style="font-weight:bold;vertical-align:top;">SERVER_ADDR</td><td style="vertical-align:top;">:</td><td><div>200.156.24.169</div></td></tr><tr><td style="font-weight:bold;vertical-align:top;">SERVER_ADMIN</td><td style="vertical-align:top;">:</td><td><div>[no address given]</div></td></tr><tr><td style="font-weight:bold;vertical-align:top;">SERVER_NAME</td><td style="vertical-align:top;">:</td><td><div>sistemas.unirio.br</div></td></tr><tr><td style="font-weight:bold;vertical-align:top;">SERVER_PORT</td><td style="vertical-align:top;">:</td><td><div>80</div></td></tr><tr><td style="font-weight:bold;vertical-align:top;">SERVER_PROTOCOL</td><td style="vertical-align:top;">:</td><td><div>HTTP/1.1</div></td></tr><tr><td style="font-weight:bold;vertical-align:top;">SERVER_SIGNATURE</td><td style="vertical-align:top;">:</td><td><div>&lt;address&gt;Apache/2.2.22 (Ubuntu) Server at sistemas.unirio.br Port 80&lt;/address&gt;\n</div></td></tr><tr><td style="font-weight:bold;vertical-align:top;">SERVER_SOFTWARE</td><td style="vertical-align:top;">:</td><td><div>Apache/2.2.22 (Ubuntu)</div></td></tr><tr><td style="font-weight:bold;vertical-align:top;">app_folders</td><td style="vertical-align:top;">:</td><td><div>set([&#x27;/home/www-data/web2py/applications/jic/&#x27;, &#x27;/home/www-data/web2py/applications/sisu2/&#x27;, &#x27;/home/www-data/web2py/applications/mobileAPI/&#x27;, &#x27;/home/www-data/web2py/applications/welcome/&#x27;, &#x27;/home/www-data/web2py/applications/admin/&#x27;, &#x27;/home/www-data/web2py/applications/processos/&#x27;, &#x27;/home/www-data/web2py/applications/avaliacao/&#x27;, &#x27;/home/www-data/web2py/applications/api/&#x27;])</div></td></tr><tr><td style="font-weight:bold;vertical-align:top;">applications_parent</td><td style="vertical-align:top;">:</td><td><div>/home/www-data/web2py</div></td></tr><tr><td style="font-weight:bold;vertical-align:top;">db_sessions</td><td style="vertical-align:top;">:</td><td><div>set([])</div></td></tr><tr><td style="font-weight:bold;vertical-align:top;">debugging</td><td style="vertical-align:top;">:</td><td><div>True</div></td></tr><tr><td style="font-weight:bold;vertical-align:top;">document_root</td><td style="vertical-align:top;">:</td><td><div>/etc/apache2/htdocs</div></td></tr><tr><td style="font-weight:bold;vertical-align:top;">gateway_interface</td><td style="vertical-align:top;">:</td><td><div>CGI/1.1</div></td></tr><tr><td style="font-weight:bold;vertical-align:top;">gluon_parent</td><td style="vertical-align:top;">:</td><td><div>/home/www-data/web2py</div></td></tr><tr><td style="font-weight:bold;vertical-align:top;">http_accept</td><td style="vertical-align:top;">:</td><td><div>text/html,application/xhtml+xml,application/xml;q=0.9,image/webp,*/*;q=0.8</div></td></tr><tr><td style="font-weight:bold;vertical-align:top;">http_accept_encoding</td><td style="vertical-align:top;">:</td><td><div>gzip,deflate,sdch</div></td></tr><tr><td style="font-weight:bold;vertical-align:top;">http_accept_language</td><td style="vertical-align:top;">:</td><td><div>pt-BR,pt;q=0.8,en-US;q=0.6,en;q=0.4</div></td></tr><tr><td style="font-weight:bold;vertical-align:top;">http_connection</td><td style="vertical-align:top;">:</td><td><div>keep-alive</div></td></tr><tr><td style="font-weight:bold;vertical-align:top;">http_cookie</td><td style="vertical-align:top;">:</td><td><div>__utma=91351262.17937699.1371429018.1376765339.1376769892.4; _ga=GA1.2.17937699.1371429018; session_id_api=200.156.24.244-386283b1-715e-4852-a513-7e9d6ddaee50</div></td></tr><tr><td style="font-weight:bold;vertical-align:top;">http_host</td><td style="vertical-align:top;">:</td><td><div>sistemas.unirio.br</div></td></tr><tr><td style="font-weight:bold;vertical-align:top;">http_user_agent</td><td style="vertical-align:top;">:</td><td><div>Mozilla/5.0 (Windows NT 6.1; WOW64) AppleWebKit/537.36 (KHTML, like Gecko) Chrome/36.0.1985.125 Safari/537.36</div></td></tr><tr><td style="font-weight:bold;vertical-align:top;">is_jython</td><td style="vertical-align:top;">:</td><td><div>False</div></td></tr><tr><td style="font-weight:bold;vertical-align:top;">is_pypy</td><td style="vertical-align:top;">:</td><td><div>False</div></td></tr><tr><td style="font-weight:bold;vertical-align:top;">is_source</td><td style="vertical-align:top;">:</td><td><div>True</div></td></tr><tr><td style="font-weight:bold;vertical-align:top;">local_hosts</td><td style="vertical-align:top;">:</td><td><div><table><tr><td><div>200.156.24.169</div></td></tr><tr><td><div>::ffff:127.0.0.1</div></td></tr><tr><td><div>::1</div></td></tr><tr><td><div>w2p</div></td></tr><tr><td><div>sistemas.unirio.br</div></td></tr><tr><td><div>127.0.0.1</div></td></tr></table></div></td></tr><tr><td style="font-weight:bold;vertical-align:top;">mod_wsgi.application_group</td><td style="vertical-align:top;">:</td><td><div>sistemas.unirio.br|</div></td></tr><tr><td style="font-weight:bold;vertical-align:top;">mod_wsgi.callable_object</td><td style="vertical-align:top;">:</td><td><div>application</div></td></tr><tr><td style="font-weight:bold;vertical-align:top;">mod_wsgi.handler_script</td><td style="vertical-align:top;">:</td><td><div></div></td></tr><tr><td style="font-weight:bold;vertical-align:top;">mod_wsgi.input_chunked</td><td style="vertical-align:top;">:</td><td><div>0</div></td></tr><tr><td style="font-weight:bold;vertical-align:top;">mod_wsgi.listener_host</td><td style="vertical-align:top;">:</td><td><div></div></td></tr><tr><td style="font-weight:bold;vertical-align:top;">mod_wsgi.listener_port</td><td style="vertical-align:top;">:</td><td><div>80</div></td></tr><tr><td style="font-weight:bold;vertical-align:top;">mod_wsgi.process_group</td><td style="vertical-align:top;">:</td><td><div>web2py</div></td></tr><tr><td style="font-weight:bold;vertical-align:top;">mod_wsgi.request_handler</td><td style="vertical-align:top;">:</td><td><div>wsgi-script</div></td></tr><tr><td style="font-weight:bold;vertical-align:top;">mod_wsgi.script_reloading</td><td style="vertical-align:top;">:</td><td><div>1</div></td></tr><tr><td style="font-weight:bold;vertical-align:top;">mod_wsgi.version</td><td style="vertical-align:top;">:</td><td><div><table><tr><td><div>3</div></td></tr><tr><td><div>3</div></td></tr></table></div></td></tr><tr><td style="font-weight:bold;vertical-align:top;">mod_wsgi_application_group</td><td style="vertical-align:top;">:</td><td><div>sistemas.unirio.br|</div></td></tr><tr><td style="font-weight:bold;vertical-align:top;">mod_wsgi_callable_object</td><td style="vertical-align:top;">:</td><td><div>application</div></td></tr><tr><td style="font-weight:bold;vertical-align:top;">mod_wsgi_handler_script</td><td style="vertical-align:top;">:</td><td><div></div></td></tr><tr><td style="font-weight:bold;vertical-align:top;">mod_wsgi_input_chunked</td><td style="vertical-align:top;">:</td><td><div>0</div></td></tr><tr><td style="font-weight:bold;vertical-align:top;">mod_wsgi_listener_host</td><td style="vertical-align:top;">:</td><td><div></div></td></tr><tr><td style="font-weight:bold;vertical-align:top;">mod_wsgi_listener_port</td><td style="vertical-align:top;">:</td><td><div>80</div></td></tr><tr><td style="font-weight:bold;vertical-align:top;">mod_wsgi_process_group</td><td style="vertical-align:top;">:</td><td><div>web2py</div></td></tr><tr><td style="font-weight:bold;vertical-align:top;">mod_wsgi_request_handler</td><td style="vertical-align:top;">:</td><td><div>wsgi-script</div></td></tr><tr><td style="font-weight:bold;vertical-align:top;">mod_wsgi_script_reloading</td><td style="vertical-align:top;">:</td><td><div>1</div></td></tr><tr><td style="font-weight:bold;vertical-align:top;">mod_wsgi_version</td><td style="vertical-align:top;">:</td><td><div><table><tr><td><div>3</div></td></tr><tr><td><div>3</div></td></tr></table></div></td></tr><tr><td style="font-weight:bold;vertical-align:top;">path_info</td><td style="vertical-align:top;">:</td><td><div>/api/default/rest/CURSOS-ALUNOS/DT-CONCLUSAO/2014</div></td></tr><tr><td style="font-weight:bold;vertical-align:top;">path_translated</td><td style="vertical-align:top;">:</td><td><div>/home/www-data/web2py/wsgihandler.py/api/default/rest/CURSOS-ALUNOS/DT-CONCLUSAO/2014</div></td></tr><tr><td style="font-weight:bold;vertical-align:top;">query_string</td><td style="vertical-align:top;">:</td><td><div></div></td></tr><tr><td style="font-weight:bold;vertical-align:top;">remote_addr</td><td style="vertical-align:top;">:</td><td><div>187.105.50.69</div></td></tr><tr><td style="font-weight:bold;vertical-align:top;">remote_port</td><td style="vertical-align:top;">:</td><td><div>40721</div></td></tr><tr><td style="font-weight:bold;vertical-align:top;">request_method</td><td style="vertical-align:top;">:</td><td><div>GET</div></td></tr><tr><td style="font-weight:bold;vertical-align:top;">request_uri</td><td style="vertical-align:top;">:</td><td><div>/api/default/rest/CURSOS-ALUNOS/DT-CONCLUSAO/2014</div></td></tr><tr><td style="font-weight:bold;vertical-align:top;">script_filename</td><td style="vertical-align:top;">:</td><td><div>/home/www-data/web2py/wsgihandler.py</div></td></tr><tr><td style="font-weight:bold;vertical-align:top;">script_name</td><td style="vertical-align:top;">:</td><td><div></div></td></tr><tr><td style="font-weight:bold;vertical-align:top;">server_addr</td><td style="vertical-align:top;">:</td><td><div>200.156.24.169</div></td></tr><tr><td style="font-weight:bold;vertical-align:top;">server_admin</td><td style="vertical-align:top;">:</td><td><div>[no address given]</div></td></tr><tr><td style="font-weight:bold;vertical-align:top;">server_name</td><td style="vertical-align:top;">:</td><td><div>sistemas.unirio.br</div></td></tr><tr><td style="font-weight:bold;vertical-align:top;">server_port</td><td style="vertical-align:top;">:</td><td><div>80</div></td></tr><tr><td style="font-weight:bold;vertical-align:top;">server_protocol</td><td style="vertical-align:top;">:</td><td><div>HTTP/1.1</div></td></tr><tr><td style="font-weight:bold;vertical-align:top;">server_signature</td><td style="vertical-align:top;">:</td><td><div>&lt;address&gt;Apache/2.2.22 (Ubuntu) Server at sistemas.unirio.br Port 80&lt;/address&gt;\n</div></td></tr><tr><td style="font-weight:bold;vertical-align:top;">server_software</td><td style="vertical-align:top;">:</td><td><div>Apache/2.2.22 (Ubuntu)</div></td></tr><tr><td style="font-weight:bold;vertical-align:top;">web2py_path</td><td style="vertical-align:top;">:</td><td><div>/home/www-data/web2py</div></td></tr><tr><td style="font-weight:bold;vertical-align:top;">web2py_version</td><td style="vertical-align:top;">:</td><td><div>2.9.4-stable+timestamp.2014.03.05.04.44.09</div></td></tr><tr><td style="font-weight:bold;vertical-align:top;">wsgi.errors</td><td style="vertical-align:top;">:</td><td><div>&lt;mod_wsgi.Log object at 0x7fc3c003d670&gt;</div></td></tr><tr><td style="font-weight:bold;vertical-align:top;">wsgi.file_wrapper</td><td style="vertical-align:top;">:</td><td><div>&lt;built-in method file_wrapper of mod_wsgi.Adapter object at 0x7fc3d76bdeb8&gt;</div></td></tr><tr><td style="font-weight:bold;vertical-align:top;">wsgi.input</td><td style="vertical-align:top;">:</td><td><div>&lt;mod_wsgi.Input object at 0x7fc3c0040d30&gt;</div></td></tr><tr><td style="font-weight:bold;vertical-align:top;">wsgi.multiprocess</td><td style="vertical-align:top;">:</td><td><div>True</div></td></tr><tr><td style="font-weight:bold;vertical-align:top;">wsgi.multithread</td><td style="vertical-align:top;">:</td><td><div>False</div></td></tr><tr><td style="font-weight:bold;vertical-align:top;">wsgi.run_once</td><td style="vertical-align:top;">:</td><td><div>False</div></td></tr><tr><td style="font-weight:bold;vertical-align:top;">wsgi.url_scheme</td><td style="vertical-align:top;">:</td><td><div>http</div></td></tr><tr><td style="font-weight:bold;vertical-align:top;">wsgi.version</td><td style="vertical-align:top;">:</td><td><div><table><tr><td><div>1</div></td></tr><tr><td><div>1</div></td></tr></table></div></td></tr><tr><td style="font-weight:bold;vertical-align:top;">wsgi_errors</td><td style="vertical-align:top;">:</td><td><div>&lt;mod_wsgi.Log object at 0x7fc3c003d670&gt;</div></td></tr><tr><td style="font-weight:bold;vertical-align:top;">wsgi_file_wrapper</td><td style="vertical-align:top;">:</td><td><div>&lt;built-in method file_wrapper of mod_wsgi.Adapter object at 0x7fc3d76bdeb8&gt;</div></td></tr><tr><td style="font-weight:bold;vertical-align:top;">wsgi_input</td><td style="vertical-align:top;">:</td><td><div>&lt;mod_wsgi.Input object at 0x7fc3c0040d30&gt;</div></td></tr><tr><td style="font-weight:bold;vertical-align:top;">wsgi_multiprocess</td><td style="vertical-align:top;">:</td><td><div>True</div></td></tr><tr><td style="font-weight:bold;vertical-align:top;">wsgi_multithread</td><td style="vertical-align:top;">:</td><td><div>False</div></td></tr><tr><td style="font-weight:bold;vertical-align:top;">wsgi_run_once</td><td style="vertical-align:top;">:</td><td><div>False</div></td></tr><tr><td style="font-weight:bold;vertical-align:top;">wsgi_url_scheme</td><td style="vertical-align:top;">:</td><td><div>http</div></td></tr><tr><td style="font-weight:bold;vertical-align:top;">wsgi_version</td><td style="vertical-align:top;">:</td><td><div><table><tr><td><div>1</div></td></tr><tr><td><div>1</div></td></tr></table></div></td></tr></table></div></td></tr><tr><td style="font-weight:bold;vertical-align:top;">extension</td><td style="vertical-align:top;">:</td><td><div>html</div></td></tr><tr><td style="font-weight:bold;vertical-align:top;">folder</td><td style="vertical-align:top;">:</td><td><div>/home/www-data/web2py/applications/api/</div></td></tr><tr><td style="font-weight:bold;vertical-align:top;">function</td><td style="vertical-align:top;">:</td><td><div>rest</div></td></tr><tr><td style="font-weight:bold;vertical-align:top;">global_settings</td><td style="vertical-align:top;">:</td><td><div><table><tr><td style="font-weight:bold;vertical-align:top;">app_folders</td><td style="vertical-align:top;">:</td><td><div>set([&#x27;/home/www-data/web2py/applications/jic/&#x27;, &#x27;/home/www-data/web2py/applications/sisu2/&#x27;, &#x27;/home/www-data/web2py/applications/mobileAPI/&#x27;, &#x27;/home/www-data/web2py/applications/welcome/&#x27;, &#x27;/home/www-data/web2py/applications/admin/&#x27;, &#x27;/home/www-data/web2py/applications/processos/&#x27;, &#x27;/home/www-data/web2py/applications/avaliacao/&#x27;, &#x27;/home/www-data/web2py/applications/api/&#x27;])</div></td></tr><tr><td style="font-weight:bold;vertical-align:top;">applications_parent</td><td style="vertical-align:top;">:</td><td><div>/home/www-data/web2py</div></td></tr><tr><td style="font-weight:bold;vertical-align:top;">db_sessions</td><td style="vertical-align:top;">:</td><td><div>set([])</div></td></tr><tr><td style="font-weight:bold;vertical-align:top;">debugging</td><td style="vertical-align:top;">:</td><td><div>True</div></td></tr><tr><td style="font-weight:bold;vertical-align:top;">gluon_parent</td><td style="vertical-align:top;">:</td><td><div>/home/www-data/web2py</div></td></tr><tr><td style="font-weight:bold;vertical-align:top;">is_jython</td><td style="vertical-align:top;">:</td><td><div>False</div></td></tr><tr><td style="font-weight:bold;vertical-align:top;">is_pypy</td><td style="vertical-align:top;">:</td><td><div>False</div></td></tr><tr><td style="font-weight:bold;vertical-align:top;">is_source</td><td style="vertical-align:top;">:</td><td><div>True</div></td></tr><tr><td style="font-weight:bold;vertical-align:top;">local_hosts</td><td style="vertical-align:top;">:</td><td><div><table><tr><td><div>200.156.24.169</div></td></tr><tr><td><div>::ffff:127.0.0.1</div></td></tr><tr><td><div>::1</div></td></tr><tr><td><div>w2p</div></td></tr><tr><td><div>sistemas.unirio.br</div></td></tr><tr><td><div>127.0.0.1</div></td></tr></table></div></td></tr><tr><td style="font-weight:bold;vertical-align:top;">web2py_version</td><td style="vertical-align:top;">:</td><td><div>2.9.4-stable+timestamp.2014.03.05.04.44.09</div></td></tr></table></div></td></tr><tr><td style="font-weight:bold;vertical-align:top;">is_https</td><td style="vertical-align:top;">:</td><td><div>False</div></td></tr><tr><td style="font-weight:bold;vertical-align:top;">is_local</td><td style="vertical-align:top;">:</td><td><div>False</div></td></tr><tr><td style="font-weight:bold;vertical-align:top;">is_restful</td><td style="vertical-align:top;">:</td><td><div>True</div></td></tr><tr><td style="font-weight:bold;vertical-align:top;">now</td><td style="vertical-align:top;">:</td><td><div>datetime.datetime(2014, 8, 9, 1, 58, 23, 167733)</div></td></tr><tr><td style="font-weight:bold;vertical-align:top;">raw_args</td><td style="vertical-align:top;">:</td><td><div>CURSOS-ALUNOS/DT-CONCLUSAO/2014</div></td></tr><tr><td style="font-weight:bold;vertical-align:top;">raw_extension</td><td style="vertical-align:top;">:</td><td><div>None</div></td></tr><tr><td style="font-weight:bold;vertical-align:top;">url</td><td style="vertical-align:top;">:</td><td><div>/api/default/rest/CURSOS-ALUNOS/DT-CONCLUSAO/2014</div></td></tr><tr><td style="font-weight:bold;vertical-align:top;">utcnow</td><td style="vertical-align:top;">:</td><td><div>datetime.datetime(2014, 8, 9, 4, 58, 23, 167753)</div></td></tr><tr><td style="font-weight:bold;vertical-align:top;">uuid</td><td style="vertical-align:top;">:</td><td><div>api/187.105.50.69.2014-08-09.01-58-23.581b110f-b738-4756-97e5-8dafbd2d0a58</div></td></tr><tr><td style="font-weight:bold;vertical-align:top;">wsgi</td><td style="vertical-align:top;">:</td><td><div>&lt;gluon.main.LazyWSGI object at 0x7fc3c00438d0&gt;</div></td></tr></table></div>'
tRp62
sS'frames'
p63
(lp64
(dp65
S'file'
p66
S'/home/www-data/web2py/gluon/restricted.py'
p67
sS'dump'
p68
(dp69
S'environment'
p70
S"{'A': <class 'gluon.html.A'>, 'ANY_OF': <class 'gluon.validators.ANY_OF'>, 'Auth': <class 'gluon.tools.Auth'>, 'B': <class 'gluon.html.B'>, 'BEAUTIFY': <class 'gluon.html.BEAUTIFY'>, 'BODY': <class 'gluon.html.BODY'>, 'BR': <class 'gluon.html.BR'>, 'BUTTON': <class 'gluon.html.BUTTON'>, 'CAT': <class 'gluon.html.CAT'>, 'CENTER': <class 'gluon.html.CENTER'>, ...}"
p71
sS'ccode'
p72
S'<code object <module> at 0x7fc3d75a2ab0, file "/...pplications/api/controllers/default.py", line 12>'
p73
ssS'lnum'
p74
I217
sS'lines'
p75
(dp76
I212
S'    try:'
p77
sI213
S'        if isinstance(code, types.CodeType):'
p78
sI214
S'            ccode = code'
p79
sI215
S'        else:'
p80
sI216
S'            ccode = compile2(code, layer)'
p81
sI217
S'        exec ccode in environment'
p82
sI218
S'    except HTTP:'
p83
sI219
S'        raise'
p84
sI220
S'    except RestrictedError:'
p85
sI221
S'        # do not encapsulate (obfuscate) the original RestrictedError'
p86
ssS'call'
p87
S"(code='# -*- coding: utf-8 -*-\\n# this file is released ...m=crud())\\n\\nresponse._vars=response._caller(rest)\\n', environment={'A': <class 'gluon.html.A'>, 'ANY_OF': <class 'gluon.validators.ANY_OF'>, 'Auth': <class 'gluon.tools.Auth'>, 'B': <class 'gluon.html.B'>, 'BEAUTIFY': <class 'gluon.html.BEAUTIFY'>, 'BODY': <class 'gluon.html.BODY'>, 'BR': <class 'gluon.html.BR'>, 'BUTTON': <class 'gluon.html.BUTTON'>, 'CAT': <class 'gluon.html.CAT'>, 'CENTER': <class 'gluon.html.CENTER'>, ...}, layer='/home/www-data/web2py/applications/api/controllers/default.py')"
p88
sS'func'
p89
S'restricted'
p90
sa(dp91
g66
S'/home/www-data/web2py/applications/api/controllers/default.py'
p92
sg68
(dp93
sg74
I83
sg75
(dp94
I72
S'    http://..../[app]/default/data/update/[table]/[id]'
p95
sI73
S'    http://..../[app]/default/data/delete/[table]/[id]'
p96
sI74
S'    http://..../[app]/default/data/select/[table]'
p97
sI75
S'    http://..../[app]/default/data/search/[table]'
p98
sI76
S'    but URLs must be signed, i.e. linked with'
p99
sI77
S"      A('table',_href=URL('data/tables',user_signature=True))"
p100
sI78
S'    or with the signed load operator'
p101
sI79
S"      LOAD('default','data.load',args='tables',ajax=True,user_signature=True)"
p102
sI80
S'    """'
p103
sI81
S'    return dict(form=crud())'
p104
ssg87
S'()'
p105
sg89
S'<module>'
p106
sa(dp107
g66
S'/home/www-data/web2py/gluon/globals.py'
p108
sg68
(dp109
S'self'
p110
S'undefined'
p111
sS'f'
S'<function rest>'
p112
ssg74
I385
sg75
(dp113
I384
S'        self._vars = None'
p114
sI385
S'        self._caller = lambda f: f()'
p115
sI386
S'        self._view_environment = None'
p116
sI387
S'        self._custom_commit = None'
p117
sI388
S'        self._custom_rollback = None'
p118
sI389
S''
sI380
S'        self.menu = []             # used by the default view layout'
p119
sI381
S'        self.files = []            # used by web2py_ajax.html'
p120
sI382
S'        self.generic_patterns = []  # patterns to allow generic views'
p121
sI383
S"        self.delimiters = ('{{', '}}')"
p122
ssg87
S'(f=<function rest>)'
p123
sg89
S'<lambda>'
p124
sa(dp125
g66
S'/home/www-data/web2py/gluon/globals.py'
p126
sg68
(dp127
S'rest_action'
p128
S'<function GET>'
p129
sS'_self'
p130
S"<Storage {'_vars': <Storage {}>, 'function': 're...der': '/home/www-data/web2py/applications/api/'}>"
p131
sS'_self.args'
p132
S"['CURSOS-ALUNOS', 'DT-CONCLUSAO', '2014']"
p133
sS'builtingetattr'
p134
S'<built-in function getattr>'
p135
ssg74
I349
sg75
(dp136
I352
S'                    if len(traceback.extract_tb(exc_traceback)) == 1:'
p137
sI353
S'                        raise HTTP(400, "invalid arguments")'
p138
sI344
S'                rest_action = _action().get(method, None)'
p139
sI345
S'                if not (rest_action and method==method.upper()'
p140
sI346
S'                        and callable(rest_action)):'
p141
sI347
S'                    raise HTTP(400, "method not supported")'
p142
sI348
S'                try:'
p143
sI349
S"                    return rest_action(*_self.args, **getattr(_self,'vars',{}))"
p144
sI350
S'                except TypeError, e:'
p145
sI351
S'                    exc_type, exc_value, exc_traceback = sys.exc_info()'
p146
ssg87
S"(_action=<function rest>, _self=<Storage {'_vars': <Storage {}>, 'function': 're...der': '/home/www-data/web2py/applications/api/'}>, *a=(), **b={})"
p147
sg89
S'f'
sa(dp148
g66
S'/home/www-data/web2py/applications/api/controllers/default.py'
p149
sg68
(dp150
S'args'
p151
S"('CURSOS-ALUNOS', 'DT-CONCLUSAO', '2014')"
p152
sS'vars'
p153
g21
sS'parser'
p154
g111
sS'patterns'
p155
S"'auto'"
p156
sS'global dbSie'
p157
S'<DAL uri="db2://DSN=dbsmtest;UID=dbsm;PWD=htrg11sn">'
p158
sS'dbSie.parse_as_rest'
p159
S'<bound method DAL.parse_as_rest of <DAL uri="db2://DSN=dbsmtest;UID=dbsm;PWD=htrg11sn">>'
p160
ssg74
I21
sg75
(dp161
I16
S'@request.restful()'
p162
sI17
S'def rest():'
p163
sI18
S"    response.view = 'generic.'+request.extension"
p164
sI19
S'    def GET(*args,**vars):'
p165
sI20
S"        patterns = 'auto'"
p166
sI21
S'        parser = dbSie.parse_as_rest(patterns,args,vars)'
p167
sI22
S'        if parser.status == 200:'
p168
sI23
S'            return dict(content=parser.response)'
p169
sI24
S'        else:'
p170
sI25
S'            raise HTTP(parser.status,parser.error)'
p171
ssg87
S"(*args=('CURSOS-ALUNOS', 'DT-CONCLUSAO', '2014'), **vars={})"
p172
sg89
S'GET'
p173
sa(dp174
g66
S'/home/www-data/web2py/gluon/dal.py'
p175
sg68
(dp176
S'count'
p177
g111
sS'dbset.count'
p178
S'<bound method Set.count of <Set (EXTRACT(year FROM CURSOS_ALUNOS.DT_CONCLUSAO) = 2014)>>'
p179
sS'dbset'
p180
S'<Set (EXTRACT(year FROM CURSOS_ALUNOS.DT_CONCLUSAO) = 2014)>'
p181
ssg74
I8173
sg75
(dp182
I8168
S"                        return Row({'status':400,'error':'invalid orderby','response':None})"
p183
sI8169
S'                    if exposedfields:'
p184
sI8170
S"                        fields = [field for field in db[table] if str(field).split('.')[-1] in exposedfields and field.readable]"
p185
sI8171
S'                    else:'
p186
sI8172
S'                        fields = [field for field in db[table] if field.readable]'
p187
sI8173
S'                    count = dbset.count()'
p188
sI8174
S'                    try:'
p189
sI8175
S"                        offset = long(vars.get('offset',None) or 0)"
p190
sI8176
S"                        limits = (offset,long(vars.get('limit',None) or 1000)+offset)"
p191
sI8177
S'                    except ValueError:'
p192
ssg87
S'(self=<DAL uri="db2://DSN=dbsmtest;UID=dbsm;PWD=htrg11sn">, patterns=[\'/ALUNOS[ALUNOS]\', \'/ALUNOS/ID-ALUNO/{ALUNOS.ID_ALUNO.ge}/{ALUNOS.ID_ALUNO.lt}\', \'/ALUNOS/ID-ALUNO/{ALUNOS.ID_ALUNO.ge}/{ALUNOS.ID_ALUNO.lt}/:field\', \'/ALUNOS/ID-PESSOA/{ALUNOS.ID_PESSOA.ge}/{ALUNOS.ID_PESSOA.lt}\', \'/ALUNOS/ID-PESSOA/{ALUNOS.ID_PESSOA.ge}/{ALUNOS.ID_PESSOA.lt}/:field\', \'/ALUNOS/ID-NATURALIDADE/{ALUNOS.ID_NATURALIDADE.ge}/{ALUNOS.ID_NATURALIDADE.lt}\', \'/ALUNOS/ID-NATURALIDADE/{ALUNOS.ID_NATURALIDADE.ge}/{ALUNOS.ID_NATURALIDADE.lt}/:field\', \'/ALUNOS/DT-NASCIMENTO/{ALUNOS.DT_NASCIMENTO.year}\', \'/ALUNOS/DT-NASCIMENTO/{ALUNOS.DT_NASCIMENTO.year}/:field\', \'/ALUNOS/DT-NASCIMENTO/{ALUNOS.DT_NASCIMENTO.year}/{ALUNOS.DT_NASCIMENTO.month}\', \'/ALUNOS/DT-NASCIMENTO/{ALUNOS.DT_NASCIMENTO.year}/{ALUNOS.DT_NASCIMENTO.month}/:field\', \'/ALUNOS/DT-NASCIMENTO/{ALUNOS.DT_NASCIMENTO.year...S.DT_NASCIMENTO.month}/{ALUNOS.DT_NASCIMENTO.day}\', \'/ALUNOS/DT-NASCIMENTO/{ALUNOS.DT_NASCIMENTO.year...SCIMENTO.month}/{ALUNOS.DT_NASCIMENTO.day}/:field\', \'/ALUNOS/ETNIA-ITEM/{ALUNOS.ETNIA_ITEM.ge}/{ALUNOS.ETNIA_ITEM.lt}\', \'/ALUNOS/ETNIA-ITEM/{ALUNOS.ETNIA_ITEM.ge}/{ALUNOS.ETNIA_ITEM.lt}/:field\', \'/ALUNOS/ETNIA-TAB/{ALUNOS.ETNIA_TAB.ge}/{ALUNOS.ETNIA_TAB.lt}\', \'/ALUNOS/ETNIA-TAB/{ALUNOS.ETNIA_TAB.ge}/{ALUNOS.ETNIA_TAB.lt}/:field\', \'/CURSOS[CURSOS]\', \'/CURSOS/ID-CURSO/{CURSOS.ID_CURSO.ge}/{CURSOS.ID_CURSO.lt}\', \'/CURSOS/ID-CURSO/{CURSOS.ID_CURSO.ge}/{CURSOS.ID_CURSO.lt}/:field\', ...], args=(\'CURSOS-ALUNOS\', \'DT-CONCLUSAO\', \'2014\'), vars={}, queries=None, nested_select=True)'
p193
sg89
S'parse_as_rest'
p194
sa(dp195
g66
S'/home/www-data/web2py/gluon/dal.py'
p196
sg68
(dp197
S'self.query'
p198
S'<Query (EXTRACT(year FROM CURSOS_ALUNOS.DT_CONCLUSAO) = 2014)>'
p199
sS'db._adapter'
p200
S'<gluon.dal.DB2Adapter object>'
p201
sS'distinct'
p202
S'None'
p203
sS'self'
p204
S'<Set (EXTRACT(year FROM CURSOS_ALUNOS.DT_CONCLUSAO) = 2014)>'
p205
sS'db'
p206
S'<DAL uri="db2://DSN=dbsmtest;UID=dbsm;PWD=htrg11sn">'
p207
sS'db._adapter.count'
p208
S'<bound method DB2Adapter.count of <gluon.dal.DB2Adapter object>>'
p209
ssg74
I10475
sg75
(dp210
I10470
S'            return cache_model('
p211
sI10471
S'                key,'
p212
sI10472
S'                (lambda self=self,distinct=distinct: \\'
p213
sI10473
S'                  db._adapter.count(self.query,distinct)),'
p214
sI10474
S'                time_expire)'
p215
sI10475
S'        return db._adapter.count(self.query,distinct)'
p216
sI10476
S''
sI10477
S'    def select(self, *fields, **attributes):'
p217
sI10478
S'        adapter = self.db._adapter'
p218
sI10479
S'        tablenames = adapter.tables(self.query,'
p219
ssg87
S'(self=<Set (EXTRACT(year FROM CURSOS_ALUNOS.DT_CONCLUSAO) = 2014)>, distinct=None, cache=None)'
p220
sg89
S'count'
p221
sa(dp222
g66
S'/home/www-data/web2py/gluon/dal.py'
p223
sg68
(dp224
S'distinct'
p225
S'None'
p226
sS'query'
p227
S'<Query (EXTRACT(year FROM CURSOS_ALUNOS.DT_CONCLUSAO) = 2014)>'
p228
sS'self'
p229
S'<gluon.dal.DB2Adapter object>'
p230
sS'self._count'
p231
S'<bound method DB2Adapter._count of <gluon.dal.DB2Adapter object>>'
p232
sS'self.execute'
p233
S'<bound method DB2Adapter.execute of <gluon.dal.DB2Adapter object>>'
p234
ssg74
I1902
sg75
(dp235
I1897
S"            return 'SELECT count(DISTINCT %s) FROM %s%s;' % \\"
p236
sI1898
S'                (sql_d, sql_t, sql_w)'
p237
sI1899
S"        return 'SELECT count(*) FROM %s%s;' % (sql_t, sql_w)"
p238
sI1900
S''
sI1901
S'    def count(self, query, distinct=None):'
p239
sI1902
S'        self.execute(self._count(query, distinct))'
p240
sI1903
S'        return self.cursor.fetchone()[0]'
p241
sI1904
S''
sI1905
S'    def tables(self, *queries):'
p242
sI1906
S'        tables = set()'
p243
ssg87
S'(self=<gluon.dal.DB2Adapter object>, query=<Query (EXTRACT(year FROM CURSOS_ALUNOS.DT_CONCLUSAO) = 2014)>, distinct=None)'
p244
sg89
g221
sa(dp245
g66
S'/home/www-data/web2py/gluon/dal.py'
p246
sg68
(dp247
S'self'
p248
S'<gluon.dal.DB2Adapter object>'
p249
sS'command'
p250
S"'SELECT count(*) FROM CURSOS_ALUNOS WHERE (EXTRACT(year FROM CURSOS_ALUNOS.DT_CONCLUSAO) = 2014)'"
p251
sS'self.log_execute'
p252
S'<bound method DB2Adapter.log_execute of <gluon.dal.DB2Adapter object>>'
p253
ssg74
I4123
sg75
(dp254
I4118
S'        if do_connect: self.reconnect()'
p255
sI4119
S''
sI4120
S'    def execute(self,command):'
p256
sI4121
S"        if command[-1:]==';':"
p257
sI4122
S'            command = command[:-1]'
p258
sI4123
S'        return self.log_execute(command)'
p259
sI4124
S''
sI4125
S'    def lastrowid(self,table):'
p260
sI4126
S"        self.execute('SELECT DISTINCT IDENTITY_VAL_LOCAL() FROM %s;' % table)"
p261
sI4127
S'        return long(self.cursor.fetchone()[0])'
p262
ssg87
S"(self=<gluon.dal.DB2Adapter object>, command='SELECT count(*) FROM CURSOS_ALUNOS WHERE (EXTRACT(year FROM CURSOS_ALUNOS.DT_CONCLUSAO) = 2014)')"
p263
sg89
S'execute'
p264
sa(dp265
g66
S'/home/www-data/web2py/gluon/dal.py'
p266
sg68
(dp267
S'a'
S"('SELECT count(*) FROM CURSOS_ALUNOS WHERE (EXTRACT(year FROM CURSOS_ALUNOS.DT_CONCLUSAO) = 2014)',)"
p268
sS'b'
g21
sS'self'
p269
S'<gluon.dal.DB2Adapter object>'
p270
sS'ret'
p271
g111
sS'self.cursor'
p272
S'<pyodbc.Cursor object>'
p273
sS'command'
p274
S"'SELECT count(*) FROM CURSOS_ALUNOS WHERE (EXTRACT(year FROM CURSOS_ALUNOS.DT_CONCLUSAO) = 2014)'"
p275
sS'self.cursor.execute'
p276
S'<built-in method execute of pyodbc.Cursor object>'
p277
ssg74
I1963
sg75
(dp278
I1958
S'            command = self.filter_sql_command(command)'
p279
sI1959
S'        if self.db._debug:'
p280
sI1960
S"            LOGGER.debug('SQL: %s' % command)"
p281
sI1961
S'        self.db._lastsql = command'
p282
sI1962
S'        t0 = time.time()'
p283
sI1963
S'        ret = self.cursor.execute(command, *a[1:], **b)'
p284
sI1964
S'        self.db._timings.append((command,time.time()-t0))'
p285
sI1965
S'        del self.db._timings[:-TIMINGSSIZE]'
p286
sI1966
S'        return ret'
p287
sI1967
S''
ssg87
S"(self=<gluon.dal.DB2Adapter object>, *a=('SELECT count(*) FROM CURSOS_ALUNOS WHERE (EXTRACT(year FROM CURSOS_ALUNOS.DT_CONCLUSAO) = 2014)',), **b={})"
p288
sg89
S'log_execute'
p289
sasS'pyver'
p290
S'Python 2.7.3: /usr/bin/python (prefix: /usr)'
p291
sS'session'
p292
g61
(S's\x1a\x00\x00\x00<div><table></table></div>'
tRp293
sS'etype'
p294
S"<class 'pyodbc.ProgrammingError'>"
p295
sS'date'
p296
S'Sat Aug  9 01:58:23 2014'
p297
sS'response'
p298
g61
(S's]\x1c\x00\x00<div><table><tr><td style="font-weight:bold;vertical-align:top;">body</td><td style="vertical-align:top;">:</td><td><div>&lt;cStringIO.StringO object at 0x7fc3d7a8eca8&gt;</div></td></tr><tr><td style="font-weight:bold;vertical-align:top;">cookies</td><td style="vertical-align:top;">:</td><td><div><table><tr><td style="font-weight:bold;vertical-align:top;">session_id_api</td><td style="vertical-align:top;">:</td><td><div>200.156.24.244-386283b1-715e-4852-a513-7e9d6ddaee50<table><tr><td style="font-weight:bold;vertical-align:top;">comment</td><td style="vertical-align:top;">:</td><td><div></div></td></tr><tr><td style="font-weight:bold;vertical-align:top;">domain</td><td style="vertical-align:top;">:</td><td><div></div></td></tr><tr><td style="font-weight:bold;vertical-align:top;">expires</td><td style="vertical-align:top;">:</td><td><div></div></td></tr><tr><td style="font-weight:bold;vertical-align:top;">httponly</td><td style="vertical-align:top;">:</td><td><div></div></td></tr><tr><td style="font-weight:bold;vertical-align:top;">max-age</td><td style="vertical-align:top;">:</td><td><div></div></td></tr><tr><td style="font-weight:bold;vertical-align:top;">path</td><td style="vertical-align:top;">:</td><td><div>/</div></td></tr><tr><td style="font-weight:bold;vertical-align:top;">secure</td><td style="vertical-align:top;">:</td><td><div></div></td></tr><tr><td style="font-weight:bold;vertical-align:top;">version</td><td style="vertical-align:top;">:</td><td><div></div></td></tr></table></div></td></tr></table></div></td></tr><tr><td style="font-weight:bold;vertical-align:top;">delimiters</td><td style="vertical-align:top;">:</td><td><div><table><tr><td><div>{{</div></td></tr><tr><td><div>}}</div></td></tr></table></div></td></tr><tr><td style="font-weight:bold;vertical-align:top;">files</td><td style="vertical-align:top;">:</td><td><div><table></table></div></td></tr><tr><td style="font-weight:bold;vertical-align:top;">flash</td><td style="vertical-align:top;">:</td><td><div></div></td></tr><tr><td style="font-weight:bold;vertical-align:top;">generic_patterns</td><td style="vertical-align:top;">:</td><td><div><table><tr><td><div>*</div></td></tr></table></div></td></tr><tr><td style="font-weight:bold;vertical-align:top;">google_analytics_id</td><td style="vertical-align:top;">:</td><td><div>None</div></td></tr><tr><td style="font-weight:bold;vertical-align:top;">headers</td><td style="vertical-align:top;">:</td><td><div><table><tr><td style="font-weight:bold;vertical-align:top;">X-Powered-By</td><td style="vertical-align:top;">:</td><td><div>web2py</div></td></tr></table></div></td></tr><tr><td style="font-weight:bold;vertical-align:top;">logo</td><td style="vertical-align:top;">:</td><td><div><a class="brand" href="http://www.web2py.com/"><b>web<span>2</span>py</b>&trade;&nbsp;</a></div></td></tr><tr><td style="font-weight:bold;vertical-align:top;">menu</td><td style="vertical-align:top;">:</td><td><div><table><tr><td><div><table><tr><td><div>Home</div></td></tr><tr><td><div>False</div></td></tr><tr><td><div>/api/default/index</div></td></tr><tr><td><div><table></table></div></td></tr></table></div></td></tr></table></div></td></tr><tr><td style="font-weight:bold;vertical-align:top;">meta</td><td style="vertical-align:top;">:</td><td><div><table><tr><td style="font-weight:bold;vertical-align:top;">author</td><td style="vertical-align:top;">:</td><td><div>Your Name &lt;you@example.com&gt;</div></td></tr><tr><td style="font-weight:bold;vertical-align:top;">description</td><td style="vertical-align:top;">:</td><td><div>a cool new app</div></td></tr><tr><td style="font-weight:bold;vertical-align:top;">generator</td><td style="vertical-align:top;">:</td><td><div>Web2py Web Framework</div></td></tr><tr><td style="font-weight:bold;vertical-align:top;">keywords</td><td style="vertical-align:top;">:</td><td><div>web2py, python, framework</div></td></tr></table></div></td></tr><tr><td style="font-weight:bold;vertical-align:top;">models_to_run</td><td style="vertical-align:top;">:</td><td><div><table><tr><td><div>^\\w+\\.py$</div></td></tr><tr><td><div>^default/\\w+\\.py$</div></td></tr><tr><td><div>^default/rest/\\w+\\.py$</div></td></tr></table></div></td></tr><tr><td style="font-weight:bold;vertical-align:top;">postprocessing</td><td style="vertical-align:top;">:</td><td><div><table></table></div></td></tr><tr><td style="font-weight:bold;vertical-align:top;">session_client</td><td style="vertical-align:top;">:</td><td><div>187.105.50.69</div></td></tr><tr><td style="font-weight:bold;vertical-align:top;">session_cookie_compression_level</td><td style="vertical-align:top;">:</td><td><div>None</div></td></tr><tr><td style="font-weight:bold;vertical-align:top;">session_cookie_expires</td><td style="vertical-align:top;">:</td><td><div>None</div></td></tr><tr><td style="font-weight:bold;vertical-align:top;">session_cookie_key</td><td style="vertical-align:top;">:</td><td><div>None</div></td></tr><tr><td style="font-weight:bold;vertical-align:top;">session_data_name</td><td style="vertical-align:top;">:</td><td><div>session_data_api</div></td></tr><tr><td style="font-weight:bold;vertical-align:top;">session_file</td><td style="vertical-align:top;">:</td><td><div>&lt;open file &#x27;/home/www-data/web2py/applications/api/sessions/200.156.24.244-386283b1-715e-4852-a513-7e9d6ddaee50&#x27;, mode &#x27;rb+&#x27; at 0x7fc3d648d6f0&gt;</div></td></tr><tr><td style="font-weight:bold;vertical-align:top;">session_filename</td><td style="vertical-align:top;">:</td><td><div>/home/www-data/web2py/applications/api/sessions/200.156.24.244-386283b1-715e-4852-a513-7e9d6ddaee50</div></td></tr><tr><td style="font-weight:bold;vertical-align:top;">session_hash</td><td style="vertical-align:top;">:</td><td><div>928be1bec95f05e9f82a798a26cdb076</div></td></tr><tr><td style="font-weight:bold;vertical-align:top;">session_id</td><td style="vertical-align:top;">:</td><td><div>200.156.24.244-386283b1-715e-4852-a513-7e9d6ddaee50</div></td></tr><tr><td style="font-weight:bold;vertical-align:top;">session_id_name</td><td style="vertical-align:top;">:</td><td><div>session_id_api</div></td></tr><tr><td style="font-weight:bold;vertical-align:top;">session_locked</td><td style="vertical-align:top;">:</td><td><div>True</div></td></tr><tr><td style="font-weight:bold;vertical-align:top;">session_masterapp</td><td style="vertical-align:top;">:</td><td><div>api</div></td></tr><tr><td style="font-weight:bold;vertical-align:top;">session_new</td><td style="vertical-align:top;">:</td><td><div>False</div></td></tr><tr><td style="font-weight:bold;vertical-align:top;">session_storage_type</td><td style="vertical-align:top;">:</td><td><div>file</div></td></tr><tr><td style="font-weight:bold;vertical-align:top;">status</td><td style="vertical-align:top;">:</td><td><div>200</div></td></tr><tr><td style="font-weight:bold;vertical-align:top;">subtitle</td><td style="vertical-align:top;">:</td><td><div></div></td></tr><tr><td style="font-weight:bold;vertical-align:top;">title</td><td style="vertical-align:top;">:</td><td><div>Api</div></td></tr><tr><td style="font-weight:bold;vertical-align:top;">view</td><td style="vertical-align:top;">:</td><td><div>generic.html</div></td></tr></table></div>'
tRp299
sS'locals'
p300
(dp301
S'a'
S"('SELECT count(*) FROM CURSOS_ALUNOS WHERE (EXTRACT(year FROM CURSOS_ALUNOS.DT_CONCLUSAO) = 2014)',)"
p302
sS'self'
p303
S'<gluon.dal.DB2Adapter object>'
p304
sS'b'
g21
sS'command'
p305
S"'SELECT count(*) FROM CURSOS_ALUNOS WHERE (EXTRACT(year FROM CURSOS_ALUNOS.DT_CONCLUSAO) = 2014)'"
p306
sS't0'
p307
S'1407560303.269024'
p308
sssS'traceback'
p309
S'Traceback (most recent call last):\n  File "/home/www-data/web2py/gluon/restricted.py", line 217, in restricted\n    exec ccode in environment\n  File "/home/www-data/web2py/applications/api/controllers/default.py", line 83, in <module>\n  File "/home/www-data/web2py/gluon/globals.py", line 385, in <lambda>\n    self._caller = lambda f: f()\n  File "/home/www-data/web2py/gluon/globals.py", line 349, in f\n    return rest_action(*_self.args, **getattr(_self,\'vars\',{}))\n  File "/home/www-data/web2py/applications/api/controllers/default.py", line 21, in GET\n    parser = dbSie.parse_as_rest(patterns,args,vars)\n  File "/home/www-data/web2py/gluon/dal.py", line 8173, in parse_as_rest\n    count = dbset.count()\n  File "/home/www-data/web2py/gluon/dal.py", line 10475, in count\n    return db._adapter.count(self.query,distinct)\n  File "/home/www-data/web2py/gluon/dal.py", line 1902, in count\n    self.execute(self._count(query, distinct))\n  File "/home/www-data/web2py/gluon/dal.py", line 4123, in execute\n    return self.log_execute(command)\n  File "/home/www-data/web2py/gluon/dal.py", line 1963, in log_execute\n    ret = self.cursor.execute(command, *a[1:], **b)\nProgrammingError: (\'42601\', \'[42601] [IBM][CLI Driver][DB2/NT64] SQL0104N  An unexpected token "year FROM CURSOS_ALUNOS.DT_CONCLUSAO" was found following "UNOS WHERE (EXTRACT(".  Expected tokens may include:  "<space>".  SQLSTATE=42601\\n (-104) (SQLExecDirectW)\')\n'
p310
s.