(dp1
S'output'
p2
S"<type 'exceptions.TypeError'> hash() takes exactly one argument (0 given)"
p3
sS'layer'
p4
S'/home/www-data/web2py/applications/api/controllers/ALUNOS.py'
p5
sS'code'
p6
S'# -*- coding: utf-8 -*-\nfrom APIKey import APIKey\nfrom APIRequest import APIRequest\n\n@service.json\n@service.xml\ndef index():\n\tapiKey = APIKey( request.vars.API_KEY )\n\tif apiKey.auth_key:\n\t\tapiRequest = APIRequest( apiKey, request )\n\t\tresp = apiRequest.performRequest()\n\n\t\treturn dict( content=resp )\n\telse:\n\t\treturn dict( error="API Key Inv\xc3\xa1lida" )\n\n\ndef call():\n    session.forget()\n    return service()\n\n@service.json\n@service.xml\ndef count():\n\tpass\nresponse._vars=response._caller(index)\n'
p7
sS'snapshot'
p8
(dp9
sS'traceback'
p10
S'Traceback (most recent call last):\n  File "/home/www-data/web2py/gluon/restricted.py", line 217, in restricted\n    exec ccode in environment\n  File "/home/www-data/web2py/applications/api/controllers/ALUNOS.py", line 26, in <module>\n  File "/home/www-data/web2py/gluon/globals.py", line 385, in <lambda>\n    self._caller = lambda f: f()\n  File "/home/www-data/web2py/applications/api/controllers/ALUNOS.py", line 8, in index\n    apiKey = APIKey( request.vars.API_KEY )\n  File "applications/api/modules/APIKey.py", line 10, in __init__\n    self.auth_key = self.authKeyForHash()\n  File "applications/api/modules/APIKey.py", line 52, in authKeyForHash\n    & (current.db.api_auth.active == True)\n  File "/home/www-data/web2py/gluon/dal.py", line 10485, in select\n    return adapter.select(self.query,fields,attributes)\n  File "/home/www-data/web2py/gluon/dal.py", line 1869, in select\n    sql = self._select(query, fields, attributes)\n  File "/home/www-data/web2py/gluon/dal.py", line 1774, in _select\n    sql_w = \' WHERE \' + self.expand(query) if query else \'\'\n  File "/home/www-data/web2py/gluon/dal.py", line 1541, in expand\n    out = op(first, second, **optional_args)\n  File "/home/www-data/web2py/gluon/dal.py", line 1381, in AND\n    return \'(%s AND %s)\' % (self.expand(first), self.expand(second))\n  File "/home/www-data/web2py/gluon/dal.py", line 1541, in expand\n    out = op(first, second, **optional_args)\n  File "/home/www-data/web2py/gluon/dal.py", line 1438, in EQ\n    self.expand(second, first.type))\n  File "/home/www-data/web2py/gluon/dal.py", line 1552, in expand\n    return str(self.represent(expression,field_type))\n  File "/home/www-data/web2py/gluon/dal.py", line 3023, in represent\n    return BaseAdapter.represent(self, obj, fieldtype)\n  File "/home/www-data/web2py/gluon/dal.py", line 1974, in represent\n    obj = obj()\nTypeError: hash() takes exactly one argument (0 given)\n'
p11
s.