(dp1
S'output'
p2
S'<class \'psycopg2.ProgrammingError\'> syntax error at or near "user"\nLINE 1: ALTER TABLE api_request ADD user INTEGER REFERENCES auth_use...\n                                    ^\n'
p3
sS'layer'
p4
S'/home/www-data/web2py/applications/api/models/db.py'
p5
sS'code'
p6
S'# -*- coding: utf-8 -*-\nfrom gluon.dal import Field\nif request.env.web2py_runtime_gae:\n    db = DAL(\'gae\')\n    session.connect(request, response, db = db)\nelse:\n    from gluon import current\n    current.dbSie = dbSie\n    db = DAL(\'postgres://postgres:devdtic2@localhost/api\')\n\n\n#########################################################################\n## Here is sample code if you need for\n## - email capabilities\n## - authentication (registration, login, logout, ... )\n## - authorization (role based authorization)\n## - services (xml, csv, json, xmlrpc, jsonrpc, amf, rss)\n## - crud actions\n## (more options discussed in gluon/tools.py)\n#########################################################################\n\nfrom gluon.tools import *\nfrom gluon.contrib.login_methods.ldap_auth import ldap_auth\n\nmail = Mail()                                  # mailer\nauth = Auth(globals(),db)                      # authentication/authorization\ncrud = Crud(globals(),db)                      # for CRUD helpers using auth\nservice = Service(globals())                   # for json, xml, jsonrpc, xmlrpc, amfrpc\nplugins = PluginManager()\n\nmail.settings.server = \'logging\' or \'smtp.gmail.com:587\'  # your SMTP server\nmail.settings.sender = \'you@gmail.com\'         # your email\nmail.settings.login = \'username:password\'      # your credentials or None\n\n## create all tables needed by auth if not custom tables\nauth.define_tables(username=True)\nauth.settings.create_user_groups=False\n\nauth.settings.login_methods=[ldap_auth(mode=\'uid\',server=\'10.224.16.100\', base_dn=\'ou=people,dc=unirio,dc=br\')]\ndb.auth_user.username.label = \'CPF\'\n\ndb.define_table("api_request_type",\n                Field("max_requests", "integer")\n                )\n\ndb.define_table("api_request",\n                Field("type", db.api_request_type), # Est\xc3\xa1 aqui porque o usu\xc3\xa1rio pode estar em mais de um grupo\n                Field("dt_request", "datetime"),\n                Field("url", "string"),\n                Field("user", db.auth_user),\n                Field("ip", "string")\n                )\n'
p7
sS'snapshot'
p8
(dp9
S'exception'
p10
(dp11
S'__module__'
p12
S"'psycopg2'"
p13
sS'__getslice__'
p14
S"<method-wrapper '__getslice__' of ProgrammingError object>"
p15
sS'__str__'
p16
S"<method-wrapper '__str__' of ProgrammingError object>"
p17
sS'__reduce__'
p18
S'<built-in method __reduce__ of ProgrammingError object>'
p19
sS'__dict__'
p20
S'{\'cursor\': <cursor object at 0x7fc3d7a12050; closed: 0>, \'pgcode\': \'42601\', \'pgerror\': \'ERROR:  syntax error at or near "user"\\nLINE 1: A...uth_use...\\n                                    ^\\n\'}'
p21
sS'__sizeof__'
p22
S'<built-in method __sizeof__ of ProgrammingError object>'
p23
sS'__weakref__'
p24
S'None'
p25
sS'__init__'
p26
S"<method-wrapper '__init__' of ProgrammingError object>"
p27
sS'__setattr__'
p28
S"<method-wrapper '__setattr__' of ProgrammingError object>"
p29
sS'__reduce_ex__'
p30
S'<built-in method __reduce_ex__ of ProgrammingError object>'
p31
sS'__new__'
p32
S'<built-in method __new__ of type object>'
p33
sS'__format__'
p34
S'<built-in method __format__ of ProgrammingError object>'
p35
sS'__class__'
p36
S"<class 'psycopg2.ProgrammingError'>"
p37
sS'pgerror'
p38
S'\'ERROR:  syntax error at or near "user"\\nLINE 1: A...uth_use...\\n                                    ^\\n\''
p39
sS'__doc__'
p40
S"'Error related to database programming (SQL error, table not found etc).'"
p41
sS'__getitem__'
p42
S"<method-wrapper '__getitem__' of ProgrammingError object>"
p43
sS'__setstate__'
p44
S'<built-in method __setstate__ of ProgrammingError object>'
p45
sS'__getattribute__'
p46
S"<method-wrapper '__getattribute__' of ProgrammingError object>"
p47
sS'args'
p48
S'(\'syntax error at or near "user"\\nLINE 1: ALTER TAB...uth_use...\\n                                    ^\\n\',)'
p49
sS'__subclasshook__'
p50
S'<built-in method __subclasshook__ of type object>'
p51
sS'pgcode'
p52
S"'42601'"
p53
sS'__unicode__'
p54
S'<built-in method __unicode__ of ProgrammingError object>'
p55
sS'cursor'
p56
S'<cursor object at 0x7fc3d7a12050; closed: 0>'
p57
sS'__delattr__'
p58
S"<method-wrapper '__delattr__' of ProgrammingError object>"
p59
sS'__repr__'
p60
S"<method-wrapper '__repr__' of ProgrammingError object>"
p61
sS'__hash__'
p62
S"<method-wrapper '__hash__' of ProgrammingError object>"
p63
ssS'evalue'
p64
S'syntax error at or near "user"\nLINE 1: ALTER TABLE api_request ADD user INTEGER REFERENCES auth_use...\n                                    ^\n'
p65
sS'request'
p66
cgluon.html
XML_unpickle
p67
(S's\xb9b\x00\x00<div><table><tr><td style="font-weight:bold;vertical-align:top;">ajax</td><td style="vertical-align:top;">:</td><td><div>False</div></td></tr><tr><td style="font-weight:bold;vertical-align:top;">application</td><td style="vertical-align:top;">:</td><td><div>api</div></td></tr><tr><td style="font-weight:bold;vertical-align:top;">args</td><td style="vertical-align:top;">:</td><td><div><table></table></div></td></tr><tr><td style="font-weight:bold;vertical-align:top;">cid</td><td style="vertical-align:top;">:</td><td><div>None</div></td></tr><tr><td style="font-weight:bold;vertical-align:top;">client</td><td style="vertical-align:top;">:</td><td><div>200.156.24.20</div></td></tr><tr><td style="font-weight:bold;vertical-align:top;">controller</td><td style="vertical-align:top;">:</td><td><div>appadmin</div></td></tr><tr><td style="font-weight:bold;vertical-align:top;">cookies</td><td style="vertical-align:top;">:</td><td><div><table><tr><td style="font-weight:bold;vertical-align:top;">session_id_admin</td><td style="vertical-align:top;">:</td><td><div>200.156.24.20-7448e873-0b69-4bfb-ac04-d65a464daf21<table><tr><td style="font-weight:bold;vertical-align:top;">comment</td><td style="vertical-align:top;">:</td><td><div></div></td></tr><tr><td style="font-weight:bold;vertical-align:top;">domain</td><td style="vertical-align:top;">:</td><td><div></div></td></tr><tr><td style="font-weight:bold;vertical-align:top;">expires</td><td style="vertical-align:top;">:</td><td><div></div></td></tr><tr><td style="font-weight:bold;vertical-align:top;">httponly</td><td style="vertical-align:top;">:</td><td><div></div></td></tr><tr><td style="font-weight:bold;vertical-align:top;">max-age</td><td style="vertical-align:top;">:</td><td><div></div></td></tr><tr><td style="font-weight:bold;vertical-align:top;">path</td><td style="vertical-align:top;">:</td><td><div></div></td></tr><tr><td style="font-weight:bold;vertical-align:top;">secure</td><td style="vertical-align:top;">:</td><td><div></div></td></tr><tr><td style="font-weight:bold;vertical-align:top;">version</td><td style="vertical-align:top;">:</td><td><div></div></td></tr></table></div></td></tr><tr><td style="font-weight:bold;vertical-align:top;">session_id_api</td><td style="vertical-align:top;">:</td><td><div>200.156.24.20-1cacaffa-db01-4d5e-b440-189124bbda8f<table><tr><td style="font-weight:bold;vertical-align:top;">comment</td><td style="vertical-align:top;">:</td><td><div></div></td></tr><tr><td style="font-weight:bold;vertical-align:top;">domain</td><td style="vertical-align:top;">:</td><td><div></div></td></tr><tr><td style="font-weight:bold;vertical-align:top;">expires</td><td style="vertical-align:top;">:</td><td><div></div></td></tr><tr><td style="font-weight:bold;vertical-align:top;">httponly</td><td style="vertical-align:top;">:</td><td><div></div></td></tr><tr><td style="font-weight:bold;vertical-align:top;">max-age</td><td style="vertical-align:top;">:</td><td><div></div></td></tr><tr><td style="font-weight:bold;vertical-align:top;">path</td><td style="vertical-align:top;">:</td><td><div></div></td></tr><tr><td style="font-weight:bold;vertical-align:top;">secure</td><td style="vertical-align:top;">:</td><td><div></div></td></tr><tr><td style="font-weight:bold;vertical-align:top;">version</td><td style="vertical-align:top;">:</td><td><div></div></td></tr></table></div></td></tr></table></div></td></tr><tr><td style="font-weight:bold;vertical-align:top;">env</td><td style="vertical-align:top;">:</td><td><div><table><tr><td style="font-weight:bold;vertical-align:top;">DOCUMENT_ROOT</td><td style="vertical-align:top;">:</td><td><div>/etc/apache2/htdocs</div></td></tr><tr><td style="font-weight:bold;vertical-align:top;">GATEWAY_INTERFACE</td><td style="vertical-align:top;">:</td><td><div>CGI/1.1</div></td></tr><tr><td style="font-weight:bold;vertical-align:top;">HTTPS</td><td style="vertical-align:top;">:</td><td><div>1</div></td></tr><tr><td style="font-weight:bold;vertical-align:top;">HTTP_ACCEPT</td><td style="vertical-align:top;">:</td><td><div>text/html,application/xhtml+xml,application/xml;q=0.9,image/webp,*/*;q=0.8</div></td></tr><tr><td style="font-weight:bold;vertical-align:top;">HTTP_ACCEPT_ENCODING</td><td style="vertical-align:top;">:</td><td><div>gzip,deflate,sdch</div></td></tr><tr><td style="font-weight:bold;vertical-align:top;">HTTP_ACCEPT_LANGUAGE</td><td style="vertical-align:top;">:</td><td><div>pt-BR,pt;q=0.8,en-US;q=0.6,en;q=0.4</div></td></tr><tr><td style="font-weight:bold;vertical-align:top;">HTTP_CACHE_CONTROL</td><td style="vertical-align:top;">:</td><td><div>max-age=0</div></td></tr><tr><td style="font-weight:bold;vertical-align:top;">HTTP_CONNECTION</td><td style="vertical-align:top;">:</td><td><div>keep-alive</div></td></tr><tr><td style="font-weight:bold;vertical-align:top;">HTTP_COOKIE</td><td style="vertical-align:top;">:</td><td><div>__utma=91351262.1563723429.1378820505.1379351391.1379354016.5; _ga=GA1.2.1563723429.1378820505; session_id_api=200.156.24.20-1cacaffa-db01-4d5e-b440-189124bbda8f; session_id_admin=200.156.24.20-7448e873-0b69-4bfb-ac04-d65a464daf21</div></td></tr><tr><td style="font-weight:bold;vertical-align:top;">HTTP_HOST</td><td style="vertical-align:top;">:</td><td><div>sistemas.unirio.br</div></td></tr><tr><td style="font-weight:bold;vertical-align:top;">HTTP_REFERER</td><td style="vertical-align:top;">:</td><td><div>https://sistemas.unirio.br/api/appadmin/select/dbSie?query=dbSie.CURSOS.ID_CURSO%3E0</div></td></tr><tr><td style="font-weight:bold;vertical-align:top;">HTTP_USER_AGENT</td><td style="vertical-align:top;">:</td><td><div>Mozilla/5.0 (Windows NT 6.1; WOW64) AppleWebKit/537.36 (KHTML, like Gecko) Chrome/36.0.1985.125 Safari/537.36</div></td></tr><tr><td style="font-weight:bold;vertical-align:top;">PATH_INFO</td><td style="vertical-align:top;">:</td><td><div>/api/appadmin/index</div></td></tr><tr><td style="font-weight:bold;vertical-align:top;">PATH_TRANSLATED</td><td style="vertical-align:top;">:</td><td><div>/home/www-data/web2py/wsgihandler.py/api/appadmin/index</div></td></tr><tr><td style="font-weight:bold;vertical-align:top;">QUERY_STRING</td><td style="vertical-align:top;">:</td><td><div></div></td></tr><tr><td style="font-weight:bold;vertical-align:top;">REMOTE_ADDR</td><td style="vertical-align:top;">:</td><td><div>200.156.24.20</div></td></tr><tr><td style="font-weight:bold;vertical-align:top;">REMOTE_PORT</td><td style="vertical-align:top;">:</td><td><div>13750</div></td></tr><tr><td style="font-weight:bold;vertical-align:top;">REQUEST_METHOD</td><td style="vertical-align:top;">:</td><td><div>GET</div></td></tr><tr><td style="font-weight:bold;vertical-align:top;">REQUEST_URI</td><td style="vertical-align:top;">:</td><td><div>/api/appadmin/index</div></td></tr><tr><td style="font-weight:bold;vertical-align:top;">SCRIPT_FILENAME</td><td style="vertical-align:top;">:</td><td><div>/home/www-data/web2py/wsgihandler.py</div></td></tr><tr><td style="font-weight:bold;vertical-align:top;">SCRIPT_NAME</td><td style="vertical-align:top;">:</td><td><div></div></td></tr><tr><td style="font-weight:bold;vertical-align:top;">SERVER_ADDR</td><td style="vertical-align:top;">:</td><td><div>200.156.24.169</div></td></tr><tr><td style="font-weight:bold;vertical-align:top;">SERVER_ADMIN</td><td style="vertical-align:top;">:</td><td><div>[no address given]</div></td></tr><tr><td style="font-weight:bold;vertical-align:top;">SERVER_NAME</td><td style="vertical-align:top;">:</td><td><div>sistemas.unirio.br</div></td></tr><tr><td style="font-weight:bold;vertical-align:top;">SERVER_PORT</td><td style="vertical-align:top;">:</td><td><div>443</div></td></tr><tr><td style="font-weight:bold;vertical-align:top;">SERVER_PROTOCOL</td><td style="vertical-align:top;">:</td><td><div>HTTP/1.1</div></td></tr><tr><td style="font-weight:bold;vertical-align:top;">SERVER_SIGNATURE</td><td style="vertical-align:top;">:</td><td><div>&lt;address&gt;Apache/2.2.22 (Ubuntu) Server at sistemas.unirio.br Port 443&lt;/address&gt;\n</div></td></tr><tr><td style="font-weight:bold;vertical-align:top;">SERVER_SOFTWARE</td><td style="vertical-align:top;">:</td><td><div>Apache/2.2.22 (Ubuntu)</div></td></tr><tr><td style="font-weight:bold;vertical-align:top;">SSL_TLS_SNI</td><td style="vertical-align:top;">:</td><td><div>sistemas.unirio.br</div></td></tr><tr><td style="font-weight:bold;vertical-align:top;">app_folders</td><td style="vertical-align:top;">:</td><td><div>set([&#x27;/home/www-data/web2py/applications/jic/&#x27;, &#x27;/home/www-data/web2py/applications/welcome/&#x27;, &#x27;/home/www-data/web2py/applications/mobileAPI/&#x27;, &#x27;/home/www-data/web2py/applications/api/&#x27;, &#x27;/home/www-data/web2py/applications/admin/&#x27;])</div></td></tr><tr><td style="font-weight:bold;vertical-align:top;">applications_parent</td><td style="vertical-align:top;">:</td><td><div>/home/www-data/web2py</div></td></tr><tr><td style="font-weight:bold;vertical-align:top;">db_sessions</td><td style="vertical-align:top;">:</td><td><div>set([])</div></td></tr><tr><td style="font-weight:bold;vertical-align:top;">debugging</td><td style="vertical-align:top;">:</td><td><div>False</div></td></tr><tr><td style="font-weight:bold;vertical-align:top;">document_root</td><td style="vertical-align:top;">:</td><td><div>/etc/apache2/htdocs</div></td></tr><tr><td style="font-weight:bold;vertical-align:top;">gateway_interface</td><td style="vertical-align:top;">:</td><td><div>CGI/1.1</div></td></tr><tr><td style="font-weight:bold;vertical-align:top;">gluon_parent</td><td style="vertical-align:top;">:</td><td><div>/home/www-data/web2py</div></td></tr><tr><td style="font-weight:bold;vertical-align:top;">http_accept</td><td style="vertical-align:top;">:</td><td><div>text/html,application/xhtml+xml,application/xml;q=0.9,image/webp,*/*;q=0.8</div></td></tr><tr><td style="font-weight:bold;vertical-align:top;">http_accept_encoding</td><td style="vertical-align:top;">:</td><td><div>gzip,deflate,sdch</div></td></tr><tr><td style="font-weight:bold;vertical-align:top;">http_accept_language</td><td style="vertical-align:top;">:</td><td><div>pt-BR,pt;q=0.8,en-US;q=0.6,en;q=0.4</div></td></tr><tr><td style="font-weight:bold;vertical-align:top;">http_cache_control</td><td style="vertical-align:top;">:</td><td><div>max-age=0</div></td></tr><tr><td style="font-weight:bold;vertical-align:top;">http_connection</td><td style="vertical-align:top;">:</td><td><div>keep-alive</div></td></tr><tr><td style="font-weight:bold;vertical-align:top;">http_cookie</td><td style="vertical-align:top;">:</td><td><div>__utma=91351262.1563723429.1378820505.1379351391.1379354016.5; _ga=GA1.2.1563723429.1378820505; session_id_api=200.156.24.20-1cacaffa-db01-4d5e-b440-189124bbda8f; session_id_admin=200.156.24.20-7448e873-0b69-4bfb-ac04-d65a464daf21</div></td></tr><tr><td style="font-weight:bold;vertical-align:top;">http_host</td><td style="vertical-align:top;">:</td><td><div>sistemas.unirio.br</div></td></tr><tr><td style="font-weight:bold;vertical-align:top;">http_referer</td><td style="vertical-align:top;">:</td><td><div>https://sistemas.unirio.br/api/appadmin/select/dbSie?query=dbSie.CURSOS.ID_CURSO%3E0</div></td></tr><tr><td style="font-weight:bold;vertical-align:top;">http_user_agent</td><td style="vertical-align:top;">:</td><td><div>Mozilla/5.0 (Windows NT 6.1; WOW64) AppleWebKit/537.36 (KHTML, like Gecko) Chrome/36.0.1985.125 Safari/537.36</div></td></tr><tr><td style="font-weight:bold;vertical-align:top;">https</td><td style="vertical-align:top;">:</td><td><div>1</div></td></tr><tr><td style="font-weight:bold;vertical-align:top;">is_jython</td><td style="vertical-align:top;">:</td><td><div>False</div></td></tr><tr><td style="font-weight:bold;vertical-align:top;">is_pypy</td><td style="vertical-align:top;">:</td><td><div>False</div></td></tr><tr><td style="font-weight:bold;vertical-align:top;">is_source</td><td style="vertical-align:top;">:</td><td><div>True</div></td></tr><tr><td style="font-weight:bold;vertical-align:top;">local_hosts</td><td style="vertical-align:top;">:</td><td><div><table><tr><td><div>200.156.24.169</div></td></tr><tr><td><div>::ffff:127.0.0.1</div></td></tr><tr><td><div>::1</div></td></tr><tr><td><div>w2p</div></td></tr><tr><td><div>sistemas.unirio.br</div></td></tr><tr><td><div>127.0.0.1</div></td></tr></table></div></td></tr><tr><td style="font-weight:bold;vertical-align:top;">mod_wsgi.application_group</td><td style="vertical-align:top;">:</td><td><div>sistemas.unirio.br|</div></td></tr><tr><td style="font-weight:bold;vertical-align:top;">mod_wsgi.callable_object</td><td style="vertical-align:top;">:</td><td><div>application</div></td></tr><tr><td style="font-weight:bold;vertical-align:top;">mod_wsgi.handler_script</td><td style="vertical-align:top;">:</td><td><div></div></td></tr><tr><td style="font-weight:bold;vertical-align:top;">mod_wsgi.input_chunked</td><td style="vertical-align:top;">:</td><td><div>0</div></td></tr><tr><td style="font-weight:bold;vertical-align:top;">mod_wsgi.listener_host</td><td style="vertical-align:top;">:</td><td><div></div></td></tr><tr><td style="font-weight:bold;vertical-align:top;">mod_wsgi.listener_port</td><td style="vertical-align:top;">:</td><td><div>443</div></td></tr><tr><td style="font-weight:bold;vertical-align:top;">mod_wsgi.process_group</td><td style="vertical-align:top;">:</td><td><div>web2py</div></td></tr><tr><td style="font-weight:bold;vertical-align:top;">mod_wsgi.request_handler</td><td style="vertical-align:top;">:</td><td><div>wsgi-script</div></td></tr><tr><td style="font-weight:bold;vertical-align:top;">mod_wsgi.script_reloading</td><td style="vertical-align:top;">:</td><td><div>1</div></td></tr><tr><td style="font-weight:bold;vertical-align:top;">mod_wsgi.version</td><td style="vertical-align:top;">:</td><td><div><table><tr><td><div>3</div></td></tr><tr><td><div>3</div></td></tr></table></div></td></tr><tr><td style="font-weight:bold;vertical-align:top;">mod_wsgi_application_group</td><td style="vertical-align:top;">:</td><td><div>sistemas.unirio.br|</div></td></tr><tr><td style="font-weight:bold;vertical-align:top;">mod_wsgi_callable_object</td><td style="vertical-align:top;">:</td><td><div>application</div></td></tr><tr><td style="font-weight:bold;vertical-align:top;">mod_wsgi_handler_script</td><td style="vertical-align:top;">:</td><td><div></div></td></tr><tr><td style="font-weight:bold;vertical-align:top;">mod_wsgi_input_chunked</td><td style="vertical-align:top;">:</td><td><div>0</div></td></tr><tr><td style="font-weight:bold;vertical-align:top;">mod_wsgi_listener_host</td><td style="vertical-align:top;">:</td><td><div></div></td></tr><tr><td style="font-weight:bold;vertical-align:top;">mod_wsgi_listener_port</td><td style="vertical-align:top;">:</td><td><div>443</div></td></tr><tr><td style="font-weight:bold;vertical-align:top;">mod_wsgi_process_group</td><td style="vertical-align:top;">:</td><td><div>web2py</div></td></tr><tr><td style="font-weight:bold;vertical-align:top;">mod_wsgi_request_handler</td><td style="vertical-align:top;">:</td><td><div>wsgi-script</div></td></tr><tr><td style="font-weight:bold;vertical-align:top;">mod_wsgi_script_reloading</td><td style="vertical-align:top;">:</td><td><div>1</div></td></tr><tr><td style="font-weight:bold;vertical-align:top;">mod_wsgi_version</td><td style="vertical-align:top;">:</td><td><div><table><tr><td><div>3</div></td></tr><tr><td><div>3</div></td></tr></table></div></td></tr><tr><td style="font-weight:bold;vertical-align:top;">path_info</td><td style="vertical-align:top;">:</td><td><div>/api/appadmin/index</div></td></tr><tr><td style="font-weight:bold;vertical-align:top;">path_translated</td><td style="vertical-align:top;">:</td><td><div>/home/www-data/web2py/wsgihandler.py/api/appadmin/index</div></td></tr><tr><td style="font-weight:bold;vertical-align:top;">query_string</td><td style="vertical-align:top;">:</td><td><div></div></td></tr><tr><td style="font-weight:bold;vertical-align:top;">remote_addr</td><td style="vertical-align:top;">:</td><td><div>200.156.24.20</div></td></tr><tr><td style="font-weight:bold;vertical-align:top;">remote_port</td><td style="vertical-align:top;">:</td><td><div>13750</div></td></tr><tr><td style="font-weight:bold;vertical-align:top;">request_method</td><td style="vertical-align:top;">:</td><td><div>GET</div></td></tr><tr><td style="font-weight:bold;vertical-align:top;">request_uri</td><td style="vertical-align:top;">:</td><td><div>/api/appadmin/index</div></td></tr><tr><td style="font-weight:bold;vertical-align:top;">script_filename</td><td style="vertical-align:top;">:</td><td><div>/home/www-data/web2py/wsgihandler.py</div></td></tr><tr><td style="font-weight:bold;vertical-align:top;">script_name</td><td style="vertical-align:top;">:</td><td><div></div></td></tr><tr><td style="font-weight:bold;vertical-align:top;">server_addr</td><td style="vertical-align:top;">:</td><td><div>200.156.24.169</div></td></tr><tr><td style="font-weight:bold;vertical-align:top;">server_admin</td><td style="vertical-align:top;">:</td><td><div>[no address given]</div></td></tr><tr><td style="font-weight:bold;vertical-align:top;">server_name</td><td style="vertical-align:top;">:</td><td><div>sistemas.unirio.br</div></td></tr><tr><td style="font-weight:bold;vertical-align:top;">server_port</td><td style="vertical-align:top;">:</td><td><div>443</div></td></tr><tr><td style="font-weight:bold;vertical-align:top;">server_protocol</td><td style="vertical-align:top;">:</td><td><div>HTTP/1.1</div></td></tr><tr><td style="font-weight:bold;vertical-align:top;">server_signature</td><td style="vertical-align:top;">:</td><td><div>&lt;address&gt;Apache/2.2.22 (Ubuntu) Server at sistemas.unirio.br Port 443&lt;/address&gt;\n</div></td></tr><tr><td style="font-weight:bold;vertical-align:top;">server_software</td><td style="vertical-align:top;">:</td><td><div>Apache/2.2.22 (Ubuntu)</div></td></tr><tr><td style="font-weight:bold;vertical-align:top;">ssl_tls_sni</td><td style="vertical-align:top;">:</td><td><div>sistemas.unirio.br</div></td></tr><tr><td style="font-weight:bold;vertical-align:top;">web2py_path</td><td style="vertical-align:top;">:</td><td><div>/home/www-data/web2py</div></td></tr><tr><td style="font-weight:bold;vertical-align:top;">web2py_version</td><td style="vertical-align:top;">:</td><td><div>2.9.4-stable+timestamp.2014.03.05.04.44.09</div></td></tr><tr><td style="font-weight:bold;vertical-align:top;">wsgi.errors</td><td style="vertical-align:top;">:</td><td><div>&lt;mod_wsgi.Log object at 0x7fc3d74f6db0&gt;</div></td></tr><tr><td style="font-weight:bold;vertical-align:top;">wsgi.file_wrapper</td><td style="vertical-align:top;">:</td><td><div>&lt;built-in method file_wrapper of mod_wsgi.Adapter object at 0x7fc3d62dfe40&gt;</div></td></tr><tr><td style="font-weight:bold;vertical-align:top;">wsgi.input</td><td style="vertical-align:top;">:</td><td><div>&lt;mod_wsgi.Input object at 0x7fc3d74f6e30&gt;</div></td></tr><tr><td style="font-weight:bold;vertical-align:top;">wsgi.multiprocess</td><td style="vertical-align:top;">:</td><td><div>True</div></td></tr><tr><td style="font-weight:bold;vertical-align:top;">wsgi.multithread</td><td style="vertical-align:top;">:</td><td><div>False</div></td></tr><tr><td style="font-weight:bold;vertical-align:top;">wsgi.run_once</td><td style="vertical-align:top;">:</td><td><div>False</div></td></tr><tr><td style="font-weight:bold;vertical-align:top;">wsgi.url_scheme</td><td style="vertical-align:top;">:</td><td><div>https</div></td></tr><tr><td style="font-weight:bold;vertical-align:top;">wsgi.version</td><td style="vertical-align:top;">:</td><td><div><table><tr><td><div>1</div></td></tr><tr><td><div>1</div></td></tr></table></div></td></tr><tr><td style="font-weight:bold;vertical-align:top;">wsgi_errors</td><td style="vertical-align:top;">:</td><td><div>&lt;mod_wsgi.Log object at 0x7fc3d74f6db0&gt;</div></td></tr><tr><td style="font-weight:bold;vertical-align:top;">wsgi_file_wrapper</td><td style="vertical-align:top;">:</td><td><div>&lt;built-in method file_wrapper of mod_wsgi.Adapter object at 0x7fc3d62dfe40&gt;</div></td></tr><tr><td style="font-weight:bold;vertical-align:top;">wsgi_input</td><td style="vertical-align:top;">:</td><td><div>&lt;mod_wsgi.Input object at 0x7fc3d74f6e30&gt;</div></td></tr><tr><td style="font-weight:bold;vertical-align:top;">wsgi_multiprocess</td><td style="vertical-align:top;">:</td><td><div>True</div></td></tr><tr><td style="font-weight:bold;vertical-align:top;">wsgi_multithread</td><td style="vertical-align:top;">:</td><td><div>False</div></td></tr><tr><td style="font-weight:bold;vertical-align:top;">wsgi_run_once</td><td style="vertical-align:top;">:</td><td><div>False</div></td></tr><tr><td style="font-weight:bold;vertical-align:top;">wsgi_url_scheme</td><td style="vertical-align:top;">:</td><td><div>https</div></td></tr><tr><td style="font-weight:bold;vertical-align:top;">wsgi_version</td><td style="vertical-align:top;">:</td><td><div><table><tr><td><div>1</div></td></tr><tr><td><div>1</div></td></tr></table></div></td></tr></table></div></td></tr><tr><td style="font-weight:bold;vertical-align:top;">extension</td><td style="vertical-align:top;">:</td><td><div>html</div></td></tr><tr><td style="font-weight:bold;vertical-align:top;">folder</td><td style="vertical-align:top;">:</td><td><div>/home/www-data/web2py/applications/api/</div></td></tr><tr><td style="font-weight:bold;vertical-align:top;">function</td><td style="vertical-align:top;">:</td><td><div>index</div></td></tr><tr><td style="font-weight:bold;vertical-align:top;">global_settings</td><td style="vertical-align:top;">:</td><td><div><table><tr><td style="font-weight:bold;vertical-align:top;">app_folders</td><td style="vertical-align:top;">:</td><td><div>set([&#x27;/home/www-data/web2py/applications/jic/&#x27;, &#x27;/home/www-data/web2py/applications/welcome/&#x27;, &#x27;/home/www-data/web2py/applications/mobileAPI/&#x27;, &#x27;/home/www-data/web2py/applications/api/&#x27;, &#x27;/home/www-data/web2py/applications/admin/&#x27;])</div></td></tr><tr><td style="font-weight:bold;vertical-align:top;">applications_parent</td><td style="vertical-align:top;">:</td><td><div>/home/www-data/web2py</div></td></tr><tr><td style="font-weight:bold;vertical-align:top;">db_sessions</td><td style="vertical-align:top;">:</td><td><div>set([])</div></td></tr><tr><td style="font-weight:bold;vertical-align:top;">debugging</td><td style="vertical-align:top;">:</td><td><div>False</div></td></tr><tr><td style="font-weight:bold;vertical-align:top;">gluon_parent</td><td style="vertical-align:top;">:</td><td><div>/home/www-data/web2py</div></td></tr><tr><td style="font-weight:bold;vertical-align:top;">is_jython</td><td style="vertical-align:top;">:</td><td><div>False</div></td></tr><tr><td style="font-weight:bold;vertical-align:top;">is_pypy</td><td style="vertical-align:top;">:</td><td><div>False</div></td></tr><tr><td style="font-weight:bold;vertical-align:top;">is_source</td><td style="vertical-align:top;">:</td><td><div>True</div></td></tr><tr><td style="font-weight:bold;vertical-align:top;">local_hosts</td><td style="vertical-align:top;">:</td><td><div><table><tr><td><div>200.156.24.169</div></td></tr><tr><td><div>::ffff:127.0.0.1</div></td></tr><tr><td><div>::1</div></td></tr><tr><td><div>w2p</div></td></tr><tr><td><div>sistemas.unirio.br</div></td></tr><tr><td><div>127.0.0.1</div></td></tr></table></div></td></tr><tr><td style="font-weight:bold;vertical-align:top;">web2py_version</td><td style="vertical-align:top;">:</td><td><div>2.9.4-stable+timestamp.2014.03.05.04.44.09</div></td></tr></table></div></td></tr><tr><td style="font-weight:bold;vertical-align:top;">is_https</td><td style="vertical-align:top;">:</td><td><div>True</div></td></tr><tr><td style="font-weight:bold;vertical-align:top;">is_local</td><td style="vertical-align:top;">:</td><td><div>False</div></td></tr><tr><td style="font-weight:bold;vertical-align:top;">is_restful</td><td style="vertical-align:top;">:</td><td><div>False</div></td></tr><tr><td style="font-weight:bold;vertical-align:top;">now</td><td style="vertical-align:top;">:</td><td><div>datetime.datetime(2014, 8, 11, 8, 41, 57, 782379)</div></td></tr><tr><td style="font-weight:bold;vertical-align:top;">raw_args</td><td style="vertical-align:top;">:</td><td><div></div></td></tr><tr><td style="font-weight:bold;vertical-align:top;">raw_extension</td><td style="vertical-align:top;">:</td><td><div>None</div></td></tr><tr><td style="font-weight:bold;vertical-align:top;">url</td><td style="vertical-align:top;">:</td><td><div>/api/appadmin/index</div></td></tr><tr><td style="font-weight:bold;vertical-align:top;">utcnow</td><td style="vertical-align:top;">:</td><td><div>datetime.datetime(2014, 8, 11, 11, 41, 57, 782401)</div></td></tr><tr><td style="font-weight:bold;vertical-align:top;">uuid</td><td style="vertical-align:top;">:</td><td><div>api/200.156.24.20.2014-08-11.08-41-57.175d47a9-3bdd-4c23-b2ed-8500b8cabf09</div></td></tr><tr><td style="font-weight:bold;vertical-align:top;">wsgi</td><td style="vertical-align:top;">:</td><td><div>&lt;gluon.main.LazyWSGI object at 0x7fc3d74f6cd0&gt;</div></td></tr></table></div>'
tRp68
sS'frames'
p69
(lp70
(dp71
S'file'
p72
S'/home/www-data/web2py/gluon/restricted.py'
p73
sS'dump'
p74
(dp75
S'environment'
p76
S"{'A': <class 'gluon.html.A'>, 'ANY_OF': <class 'gluon.validators.ANY_OF'>, 'Auth': <class 'gluon.tools.Auth'>, 'B': <class 'gluon.html.B'>, 'BEAUTIFY': <class 'gluon.html.BEAUTIFY'>, 'BODY': <class 'gluon.html.BODY'>, 'BR': <class 'gluon.html.BR'>, 'BUTTON': <class 'gluon.html.BUTTON'>, 'CAT': <class 'gluon.html.CAT'>, 'CENTER': <class 'gluon.html.CENTER'>, ...}"
p77
sS'ccode'
p78
S'<code object <module> at 0x7fc3d7a32930, file "/...ta/web2py/applications/api/models/db.py", line 2>'
p79
ssS'lnum'
p80
I217
sS'lines'
p81
(dp82
I212
S'    try:'
p83
sI213
S'        if isinstance(code, types.CodeType):'
p84
sI214
S'            ccode = code'
p85
sI215
S'        else:'
p86
sI216
S'            ccode = compile2(code, layer)'
p87
sI217
S'        exec ccode in environment'
p88
sI218
S'    except HTTP:'
p89
sI219
S'        raise'
p90
sI220
S'    except RestrictedError:'
p91
sI221
S'        # do not encapsulate (obfuscate) the original RestrictedError'
p92
ssS'call'
p93
S'(code=\'# -*- coding: utf-8 -*-\\nfrom gluon.dal import Fi...         Field("ip", "string")\\n                )\\n\', environment={\'A\': <class \'gluon.html.A\'>, \'ANY_OF\': <class \'gluon.validators.ANY_OF\'>, \'Auth\': <class \'gluon.tools.Auth\'>, \'B\': <class \'gluon.html.B\'>, \'BEAUTIFY\': <class \'gluon.html.BEAUTIFY\'>, \'BODY\': <class \'gluon.html.BODY\'>, \'BR\': <class \'gluon.html.BR\'>, \'BUTTON\': <class \'gluon.html.BUTTON\'>, \'CAT\': <class \'gluon.html.CAT\'>, \'CENTER\': <class \'gluon.html.CENTER\'>, ...}, layer=\'/home/www-data/web2py/applications/api/models/db.py\')'
p94
sS'func'
p95
S'restricted'
p96
sa(dp97
g72
S'/home/www-data/web2py/applications/api/models/db.py'
p98
sg74
(dp99
S'Field'
p100
S"<class 'gluon.dal.Field'>"
p101
ssg80
I51
sg81
(dp102
I43
S'                Field("max_requests", "integer")'
p103
sI44
S'                )'
p104
sI45
S''
sI46
S'db.define_table("api_request",'
p105
sI47
S'                Field("type", db.api_request_type), # Est\xc3\xa1 aqui porque o usu\xc3\xa1rio pode estar em mais de um grupo'
p106
sI48
S'                Field("dt_request", "datetime"),'
p107
sI49
S'                Field("url", "string"),'
p108
sI50
S'                Field("user", db.auth_user),'
p109
sI51
S'                Field("ip", "string")'
p110
sI52
S'                )'
p111
ssg93
S'()'
p112
sg95
S'<module>'
p113
sa(dp114
g72
S'/home/www-data/web2py/gluon/dal.py'
p115
sg74
(dp116
S'fields'
p117
S'(<gluon.dal.Field object>, <gluon.dal.Field object>, <gluon.dal.Field object>, <gluon.dal.Field object>, <gluon.dal.Field object>)'
p118
sS'self'
p119
S'<DAL uri="postgres:******@localhost/api">'
p120
sS'args'
p121
S'{}'
p122
sS'tablename'
p123
S"'api_request'"
p124
sS'table'
p125
S'undefined'
p126
sS'self.lazy_define_table'
p127
S'<bound method DAL.lazy_define_table of <DAL uri="postgres:******@localhost/api">>'
p128
ssg80
I8223
sg81
(dp129
I8224
S'        if not tablename in self.tables:'
p130
sI8225
S'            self.tables.append(tablename)'
p131
sI8226
S'        return table'
p132
sI8227
S''
sI8218
S'                    % (tablename,invalid_args))'
p133
sI8219
S'        if self._lazy_tables and not tablename in self._LAZY_TABLES:'
p134
sI8220
S'            self._LAZY_TABLES[tablename] = (tablename,fields,args)'
p135
sI8221
S'            table = None'
p136
sI8222
S'        else:'
p137
sI8223
S'            table = self.lazy_define_table(tablename,*fields,**args)'
p138
ssg93
S'(self=<DAL uri="postgres:******@localhost/api">, tablename=\'api_request\', *fields=(<gluon.dal.Field object>, <gluon.dal.Field object>, <gluon.dal.Field object>, <gluon.dal.Field object>, <gluon.dal.Field object>), **args={})'
p139
sg95
S'define_table'
p140
sa(dp141
g72
S'/home/www-data/web2py/gluon/dal.py'
p142
sg74
(dp143
S'polymodel'
p144
S'None'
p145
ssg80
I8260
sg81
(dp146
I8256
S'                GLOBAL_LOCKER.acquire()'
p147
sI8257
S'                self._lastsql = self._adapter.create_table('
p148
sI8258
S'                    table,migrate=migrate,'
p149
sI8259
S'                    fake_migrate=fake_migrate,'
p150
sI8260
S'                    polymodel=polymodel)'
p151
sI8261
S'            finally:'
p152
sI8262
S'                GLOBAL_LOCKER.release()'
p153
sI8263
S'        else:'
p154
sI8264
S'            table._dbt = None'
p155
sI8255
S'            try:'
p156
ssg93
S'(self=<DAL uri="postgres:******@localhost/api">, tablename=\'api_request\', *fields=(<gluon.dal.Field object>, <gluon.dal.Field object>, <gluon.dal.Field object>, <gluon.dal.Field object>, <gluon.dal.Field object>), **args={})'
p157
sg95
S'lazy_define_table'
p158
sa(dp159
g72
S'/home/www-data/web2py/gluon/dal.py'
p160
sg74
(dp161
S'fake_migrate'
p162
S'False'
p163
ssg80
I1132
sg81
(dp164
I1127
S'            if sql_fields != sql_fields_old:'
p165
sI1128
S'                self.migrate_table('
p166
sI1129
S'                    table,'
p167
sI1130
S'                    sql_fields, sql_fields_old,'
p168
sI1131
S'                    sql_fields_aux, None,'
p169
sI1132
S'                    fake_migrate=fake_migrate'
p170
sI1133
S'                    )'
p171
sI1134
S'        return query'
p172
sI1135
S''
sI1136
S'    def migrate_table('
p173
ssg93
S'(self=<gluon.dal.PostgreSQLAdapter object>, table=<Table api_request (id,type,dt_request,url,user,ip)>, migrate=True, fake_migrate=False, polymodel=None)'
p174
sg95
S'create_table'
p175
sa(dp176
g72
S'/home/www-data/web2py/gluon/dal.py'
p177
sg74
(dp178
S'self'
p179
S'<gluon.dal.PostgreSQLAdapter object>'
p180
sS'self.execute'
p181
S'<bound method PostgreSQLAdapter.execute of <gluon.dal.PostgreSQLAdapter object>>'
p182
sS'sub_query'
p183
S"'ALTER TABLE api_request ADD user INTEGER REFERENCES auth_user (id) ON DELETE CASCADE;'"
p184
ssg80
I1245
sg81
(dp185
I1248
S'                        # in one transaction so we must commit'
p186
sI1249
S'                        # partial transactions and'
p187
sI1240
S'                    if fake_migrate:'
p188
sI1241
S'                        if db._adapter.commit_on_alter_table:'
p189
sI1242
S'                            self.save_dbt(table,sql_fields_current)'
p190
sI1243
S"                        self.log('faked!\\n', table)"
p191
sI1244
S'                    else:'
p192
sI1245
S'                        self.execute(sub_query)'
p193
sI1246
S'                        # Caveat: mysql, oracle and firebird'
p194
sI1247
S'                        # do not allow multiple alter table'
p195
ssg93
S"(self=<gluon.dal.PostgreSQLAdapter object>, table=<Table api_request (id,type,dt_request,url,user,ip)>, sql_fields={'dt_request': {'length': 512, 'notnull': False, 'sortable': 3, 'sql': 'TIMESTAMP', 'type': 'datetime', 'unique': False}, 'id': {'length': 512, 'notnull': False, 'sortable': 1, 'sql': 'SERIAL PRIMARY KEY', 'type': 'id', 'unique': False}, 'ip': {'length': 512, 'notnull': False, 'sortable': 6, 'sql': 'VARCHAR(512)', 'type': 'string', 'unique': False}, 'type': {'length': 512, 'notnull': False, 'sortable': 2, 'sql': 'INTEGER REFERENCES api_request_type (id) ON DELETE CASCADE', 'type': 'reference api_request_type', 'unique': False}, 'url': {'length': 512, 'notnull': False, 'sortable': 4, 'sql': 'VARCHAR(512)', 'type': 'string', 'unique': False}, 'user': {'length': 512, 'notnull': False, 'sortable': 5, 'sql': 'INTEGER REFERENCES auth_user (id) ON DELETE CASCADE', 'type': 'reference auth_user', 'unique': False}}, sql_fields_old={'dt_request': {'length': 512, 'notnull': False, 'sortable': 3, 'sql': 'TIMESTAMP', 'type': 'datetime', 'unique': False}, 'id': {'length': 512, 'notnull': False, 'sortable': 1, 'sql': 'SERIAL PRIMARY KEY', 'type': 'id', 'unique': False}, 'type': {'length': 512, 'notnull': False, 'sortable': 2, 'sql': 'INTEGER REFERENCES api_request_type (id) ON DELETE CASCADE', 'type': 'reference api_request_type', 'unique': False}, 'url': {'length': 512, 'notnull': False, 'sortable': 4, 'sql': 'VARCHAR(512)', 'type': 'string', 'unique': False}}, sql_fields_aux={'dt_request': {'sql': 'TIMESTAMP'}, 'id': {'sql': 'SERIAL PRIMARY KEY'}, 'ip': {'sql': 'VARCHAR(512)'}, 'type': {'sql': 'INTEGER REFERENCES api_request_type (id) ON DELETE CASCADE'}, 'url': {'sql': 'VARCHAR(512)'}, 'user': {'sql': 'INTEGER REFERENCES auth_user (id) ON DELETE CASCADE'}}, logfile=None, fake_migrate=False)"
p196
sg95
S'migrate_table'
p197
sa(dp198
g72
S'/home/www-data/web2py/gluon/dal.py'
p199
sg74
(dp200
S'a'
S"('ALTER TABLE api_request ADD user INTEGER REFERENCES auth_user (id) ON DELETE CASCADE;',)"
p201
sS'self'
p202
S'<gluon.dal.PostgreSQLAdapter object>'
p203
sS'b'
g122
sS'self.log_execute'
p204
S'<bound method PostgreSQLAdapter.log_execute of <gluon.dal.PostgreSQLAdapter object>>'
p205
ssg80
I1969
sg81
(dp206
I1964
S'        self.db._timings.append((command,time.time()-t0))'
p207
sI1965
S'        del self.db._timings[:-TIMINGSSIZE]'
p208
sI1966
S'        return ret'
p209
sI1967
S''
sI1968
S'    def execute(self, *a, **b):'
p210
sI1969
S'        return self.log_execute(*a, **b)'
p211
sI1970
S''
sI1971
S'    def represent(self, obj, fieldtype):'
p212
sI1972
S'        field_is_type = fieldtype.startswith'
p213
sI1973
S'        if isinstance(obj, CALLABLETYPES):'
p214
ssg93
S"(self=<gluon.dal.PostgreSQLAdapter object>, *a=('ALTER TABLE api_request ADD user INTEGER REFERENCES auth_user (id) ON DELETE CASCADE;',), **b={})"
p215
sg95
S'execute'
p216
sa(dp217
g72
S'/home/www-data/web2py/gluon/dal.py'
p218
sg74
(dp219
S'a'
S"('ALTER TABLE api_request ADD user INTEGER REFERENCES auth_user (id) ON DELETE CASCADE;',)"
p220
sS'b'
g122
sS'self'
p221
S'<gluon.dal.PostgreSQLAdapter object>'
p222
sS'ret'
p223
g126
sS'self.cursor'
p224
S'<cursor object at 0x7fc3d7a12050; closed: 0>'
p225
sS'command'
p226
S"'ALTER TABLE api_request ADD user INTEGER REFERENCES auth_user (id) ON DELETE CASCADE;'"
p227
sS'self.cursor.execute'
p228
S'<built-in method execute of psycopg2._psycopg.cursor object>'
p229
ssg80
I1963
sg81
(dp230
I1958
S'            command = self.filter_sql_command(command)'
p231
sI1959
S'        if self.db._debug:'
p232
sI1960
S"            LOGGER.debug('SQL: %s' % command)"
p233
sI1961
S'        self.db._lastsql = command'
p234
sI1962
S'        t0 = time.time()'
p235
sI1963
S'        ret = self.cursor.execute(command, *a[1:], **b)'
p236
sI1964
S'        self.db._timings.append((command,time.time()-t0))'
p237
sI1965
S'        del self.db._timings[:-TIMINGSSIZE]'
p238
sI1966
S'        return ret'
p239
sI1967
S''
ssg93
S"(self=<gluon.dal.PostgreSQLAdapter object>, *a=('ALTER TABLE api_request ADD user INTEGER REFERENCES auth_user (id) ON DELETE CASCADE;',), **b={})"
p240
sg95
S'log_execute'
p241
sasS'pyver'
p242
S'Python 2.7.3: /usr/bin/python (prefix: /usr)'
p243
sS'session'
p244
g67
(S's\xbd\x01\x00\x00<div><table><tr><td style="font-weight:bold;vertical-align:top;">flash</td><td style="vertical-align:top;">:</td><td><div>None</div></td></tr><tr><td style="font-weight:bold;vertical-align:top;">last_orderby</td><td style="vertical-align:top;">:</td><td><div>None</div></td></tr><tr><td style="font-weight:bold;vertical-align:top;">last_query</td><td style="vertical-align:top;">:</td><td><div>db.auth_group.id&gt;0</div></td></tr></table></div>'
tRp245
sS'etype'
p246
S"<class 'psycopg2.ProgrammingError'>"
p247
sS'date'
p248
S'Mon Aug 11 08:41:57 2014'
p249
sS'response'
p250
g67
(S's\xce\x16\x00\x00<div><table><tr><td style="font-weight:bold;vertical-align:top;">body</td><td style="vertical-align:top;">:</td><td><div>&lt;cStringIO.StringO object at 0x7fc3d56aa0d8&gt;</div></td></tr><tr><td style="font-weight:bold;vertical-align:top;">cookies</td><td style="vertical-align:top;">:</td><td><div><table><tr><td style="font-weight:bold;vertical-align:top;">session_id_api</td><td style="vertical-align:top;">:</td><td><div>200.156.24.20-1cacaffa-db01-4d5e-b440-189124bbda8f<table><tr><td style="font-weight:bold;vertical-align:top;">comment</td><td style="vertical-align:top;">:</td><td><div></div></td></tr><tr><td style="font-weight:bold;vertical-align:top;">domain</td><td style="vertical-align:top;">:</td><td><div></div></td></tr><tr><td style="font-weight:bold;vertical-align:top;">expires</td><td style="vertical-align:top;">:</td><td><div></div></td></tr><tr><td style="font-weight:bold;vertical-align:top;">httponly</td><td style="vertical-align:top;">:</td><td><div></div></td></tr><tr><td style="font-weight:bold;vertical-align:top;">max-age</td><td style="vertical-align:top;">:</td><td><div></div></td></tr><tr><td style="font-weight:bold;vertical-align:top;">path</td><td style="vertical-align:top;">:</td><td><div>/</div></td></tr><tr><td style="font-weight:bold;vertical-align:top;">secure</td><td style="vertical-align:top;">:</td><td><div></div></td></tr><tr><td style="font-weight:bold;vertical-align:top;">version</td><td style="vertical-align:top;">:</td><td><div></div></td></tr></table></div></td></tr></table></div></td></tr><tr><td style="font-weight:bold;vertical-align:top;">delimiters</td><td style="vertical-align:top;">:</td><td><div><table><tr><td><div>{{</div></td></tr><tr><td><div>}}</div></td></tr></table></div></td></tr><tr><td style="font-weight:bold;vertical-align:top;">files</td><td style="vertical-align:top;">:</td><td><div><table></table></div></td></tr><tr><td style="font-weight:bold;vertical-align:top;">flash</td><td style="vertical-align:top;">:</td><td><div></div></td></tr><tr><td style="font-weight:bold;vertical-align:top;">generic_patterns</td><td style="vertical-align:top;">:</td><td><div><table><tr><td><div>*</div></td></tr></table></div></td></tr><tr><td style="font-weight:bold;vertical-align:top;">headers</td><td style="vertical-align:top;">:</td><td><div><table><tr><td style="font-weight:bold;vertical-align:top;">X-Powered-By</td><td style="vertical-align:top;">:</td><td><div>web2py</div></td></tr></table></div></td></tr><tr><td style="font-weight:bold;vertical-align:top;">menu</td><td style="vertical-align:top;">:</td><td><div><table></table></div></td></tr><tr><td style="font-weight:bold;vertical-align:top;">meta</td><td style="vertical-align:top;">:</td><td><div><table></table></div></td></tr><tr><td style="font-weight:bold;vertical-align:top;">models_to_run</td><td style="vertical-align:top;">:</td><td><div><table><tr><td><div>^\\w+\\.py$</div></td></tr><tr><td><div>^appadmin/\\w+\\.py$</div></td></tr><tr><td><div>^appadmin/index/\\w+\\.py$</div></td></tr></table></div></td></tr><tr><td style="font-weight:bold;vertical-align:top;">postprocessing</td><td style="vertical-align:top;">:</td><td><div><table></table></div></td></tr><tr><td style="font-weight:bold;vertical-align:top;">session_client</td><td style="vertical-align:top;">:</td><td><div>200.156.24.20</div></td></tr><tr><td style="font-weight:bold;vertical-align:top;">session_cookie_compression_level</td><td style="vertical-align:top;">:</td><td><div>None</div></td></tr><tr><td style="font-weight:bold;vertical-align:top;">session_cookie_expires</td><td style="vertical-align:top;">:</td><td><div>None</div></td></tr><tr><td style="font-weight:bold;vertical-align:top;">session_cookie_key</td><td style="vertical-align:top;">:</td><td><div>None</div></td></tr><tr><td style="font-weight:bold;vertical-align:top;">session_data_name</td><td style="vertical-align:top;">:</td><td><div>session_data_api</div></td></tr><tr><td style="font-weight:bold;vertical-align:top;">session_file</td><td style="vertical-align:top;">:</td><td><div>&lt;open file &#x27;/home/www-data/web2py/applications/api/sessions/200.156.24.20-1cacaffa-db01-4d5e-b440-189124bbda8f&#x27;, mode &#x27;rb+&#x27; at 0x7fc3d7b42b70&gt;</div></td></tr><tr><td style="font-weight:bold;vertical-align:top;">session_filename</td><td style="vertical-align:top;">:</td><td><div>/home/www-data/web2py/applications/api/sessions/200.156.24.20-1cacaffa-db01-4d5e-b440-189124bbda8f</div></td></tr><tr><td style="font-weight:bold;vertical-align:top;">session_hash</td><td style="vertical-align:top;">:</td><td><div>5dff8606a6eea698dccb749635906c62</div></td></tr><tr><td style="font-weight:bold;vertical-align:top;">session_id</td><td style="vertical-align:top;">:</td><td><div>200.156.24.20-1cacaffa-db01-4d5e-b440-189124bbda8f</div></td></tr><tr><td style="font-weight:bold;vertical-align:top;">session_id_name</td><td style="vertical-align:top;">:</td><td><div>session_id_api</div></td></tr><tr><td style="font-weight:bold;vertical-align:top;">session_locked</td><td style="vertical-align:top;">:</td><td><div>True</div></td></tr><tr><td style="font-weight:bold;vertical-align:top;">session_masterapp</td><td style="vertical-align:top;">:</td><td><div>api</div></td></tr><tr><td style="font-weight:bold;vertical-align:top;">session_new</td><td style="vertical-align:top;">:</td><td><div>False</div></td></tr><tr><td style="font-weight:bold;vertical-align:top;">session_storage_type</td><td style="vertical-align:top;">:</td><td><div>file</div></td></tr><tr><td style="font-weight:bold;vertical-align:top;">status</td><td style="vertical-align:top;">:</td><td><div>200</div></td></tr><tr><td style="font-weight:bold;vertical-align:top;">view</td><td style="vertical-align:top;">:</td><td><div>appadmin/index.html</div></td></tr></table></div>'
tRp251
sS'locals'
p252
(dp253
S'a'
S"('ALTER TABLE api_request ADD user INTEGER REFERENCES auth_user (id) ON DELETE CASCADE;',)"
p254
sS'self'
p255
S'<gluon.dal.PostgreSQLAdapter object>'
p256
sS'b'
g122
sS'command'
p257
S"'ALTER TABLE api_request ADD user INTEGER REFERENCES auth_user (id) ON DELETE CASCADE;'"
p258
sS't0'
p259
S'1407757317.91062'
p260
sssS'traceback'
p261
S'Traceback (most recent call last):\n  File "/home/www-data/web2py/gluon/restricted.py", line 217, in restricted\n    exec ccode in environment\n  File "/home/www-data/web2py/applications/api/models/db.py", line 51, in <module>\n    Field("ip", "string")\n  File "/home/www-data/web2py/gluon/dal.py", line 8223, in define_table\n    table = self.lazy_define_table(tablename,*fields,**args)\n  File "/home/www-data/web2py/gluon/dal.py", line 8260, in lazy_define_table\n    polymodel=polymodel)\n  File "/home/www-data/web2py/gluon/dal.py", line 1132, in create_table\n    fake_migrate=fake_migrate\n  File "/home/www-data/web2py/gluon/dal.py", line 1245, in migrate_table\n    self.execute(sub_query)\n  File "/home/www-data/web2py/gluon/dal.py", line 1969, in execute\n    return self.log_execute(*a, **b)\n  File "/home/www-data/web2py/gluon/dal.py", line 1963, in log_execute\n    ret = self.cursor.execute(command, *a[1:], **b)\nProgrammingError: syntax error at or near "user"\nLINE 1: ALTER TABLE api_request ADD user INTEGER REFERENCES auth_use...\n                                    ^\n\n'
p262
s.