(dp1
S'output'
p2
S"<type 'exceptions.RuntimeError'> Table column/cell width not specified, unable to continue"
p3
sS'layer'
p4
S'/home/www-data/web2py/applications/api/views/generic.pdf'
p5
sS'code'
p6
S"import os\nfrom gluon.contrib.generics import pdf_from_html\nfilename = '%s/%s.html' % (request.controller,request.function)\nif os.path.exists(os.path.join(request.folder,'views',filename)):\n    html=response.render(filename)\nelse:\n    html=BODY(BEAUTIFY(response._vars)).xml()\n    pass\nresponse.write(pdf_from_html(html))\nresponse.write('\\n', escape=False)"
p7
sS'snapshot'
p8
(dp9
S'exception'
p10
(dp11
S'__hash__'
p12
S"<method-wrapper '__hash__' of exceptions.RuntimeError object>"
p13
sS'__setattr__'
p14
S"<method-wrapper '__setattr__' of exceptions.RuntimeError object>"
p15
sS'__reduce_ex__'
p16
S'<built-in method __reduce_ex__ of exceptions.RuntimeError object>'
p17
sS'__getslice__'
p18
S"<method-wrapper '__getslice__' of exceptions.RuntimeError object>"
p19
sS'__getitem__'
p20
S"<method-wrapper '__getitem__' of exceptions.RuntimeError object>"
p21
sS'__setstate__'
p22
S'<built-in method __setstate__ of exceptions.RuntimeError object>'
p23
sS'args'
p24
S"('Table column/cell width not specified, unable to continue',)"
p25
sS'__reduce__'
p26
S'<built-in method __reduce__ of exceptions.RuntimeError object>'
p27
sS'__str__'
p28
S"<method-wrapper '__str__' of exceptions.RuntimeError object>"
p29
sS'__format__'
p30
S'<built-in method __format__ of exceptions.RuntimeError object>'
p31
sS'__getattribute__'
p32
S"<method-wrapper '__getattribute__' of exceptions.RuntimeError object>"
p33
sS'__class__'
p34
S"<type 'exceptions.RuntimeError'>"
p35
sS'__unicode__'
p36
S'<built-in method __unicode__ of exceptions.RuntimeError object>'
p37
sS'__delattr__'
p38
S"<method-wrapper '__delattr__' of exceptions.RuntimeError object>"
p39
sS'__subclasshook__'
p40
S'<built-in method __subclasshook__ of type object>'
p41
sS'__repr__'
p42
S"<method-wrapper '__repr__' of exceptions.RuntimeError object>"
p43
sS'__dict__'
p44
S'{}'
p45
sS'__sizeof__'
p46
S'<built-in method __sizeof__ of exceptions.RuntimeError object>'
p47
sS'__doc__'
p48
S"'Unspecified run-time error.'"
p49
sS'__init__'
p50
S"<method-wrapper '__init__' of exceptions.RuntimeError object>"
p51
sS'__new__'
p52
S'<built-in method __new__ of type object>'
p53
ssS'evalue'
p54
S'Table column/cell width not specified, unable to continue'
p55
sS'request'
p56
cgluon.html
XML_unpickle
p57
(S's\x9ea\x00\x00<div><table><tr><td style="font-weight:bold;vertical-align:top;">ajax</td><td style="vertical-align:top;">:</td><td><div>False</div></td></tr><tr><td style="font-weight:bold;vertical-align:top;">application</td><td style="vertical-align:top;">:</td><td><div>api</div></td></tr><tr><td style="font-weight:bold;vertical-align:top;">args</td><td style="vertical-align:top;">:</td><td><div><table><tr><td><div>CURSOS</div></td></tr></table></div></td></tr><tr><td style="font-weight:bold;vertical-align:top;">cid</td><td style="vertical-align:top;">:</td><td><div>None</div></td></tr><tr><td style="font-weight:bold;vertical-align:top;">client</td><td style="vertical-align:top;">:</td><td><div>200.156.24.244</div></td></tr><tr><td style="font-weight:bold;vertical-align:top;">controller</td><td style="vertical-align:top;">:</td><td><div>default</div></td></tr><tr><td style="font-weight:bold;vertical-align:top;">cookies</td><td style="vertical-align:top;">:</td><td><div><table><tr><td style="font-weight:bold;vertical-align:top;">session_id_admin</td><td style="vertical-align:top;">:</td><td><div>200.156.24.244-0f66c04e-e287-43f5-a9f7-3c28c0c749d4<table><tr><td style="font-weight:bold;vertical-align:top;">comment</td><td style="vertical-align:top;">:</td><td><div></div></td></tr><tr><td style="font-weight:bold;vertical-align:top;">domain</td><td style="vertical-align:top;">:</td><td><div></div></td></tr><tr><td style="font-weight:bold;vertical-align:top;">expires</td><td style="vertical-align:top;">:</td><td><div></div></td></tr><tr><td style="font-weight:bold;vertical-align:top;">httponly</td><td style="vertical-align:top;">:</td><td><div></div></td></tr><tr><td style="font-weight:bold;vertical-align:top;">max-age</td><td style="vertical-align:top;">:</td><td><div></div></td></tr><tr><td style="font-weight:bold;vertical-align:top;">path</td><td style="vertical-align:top;">:</td><td><div></div></td></tr><tr><td style="font-weight:bold;vertical-align:top;">secure</td><td style="vertical-align:top;">:</td><td><div></div></td></tr><tr><td style="font-weight:bold;vertical-align:top;">version</td><td style="vertical-align:top;">:</td><td><div></div></td></tr></table></div></td></tr><tr><td style="font-weight:bold;vertical-align:top;">session_id_api</td><td style="vertical-align:top;">:</td><td><div>200.156.24.244-386283b1-715e-4852-a513-7e9d6ddaee50<table><tr><td style="font-weight:bold;vertical-align:top;">comment</td><td style="vertical-align:top;">:</td><td><div></div></td></tr><tr><td style="font-weight:bold;vertical-align:top;">domain</td><td style="vertical-align:top;">:</td><td><div></div></td></tr><tr><td style="font-weight:bold;vertical-align:top;">expires</td><td style="vertical-align:top;">:</td><td><div></div></td></tr><tr><td style="font-weight:bold;vertical-align:top;">httponly</td><td style="vertical-align:top;">:</td><td><div></div></td></tr><tr><td style="font-weight:bold;vertical-align:top;">max-age</td><td style="vertical-align:top;">:</td><td><div></div></td></tr><tr><td style="font-weight:bold;vertical-align:top;">path</td><td style="vertical-align:top;">:</td><td><div></div></td></tr><tr><td style="font-weight:bold;vertical-align:top;">secure</td><td style="vertical-align:top;">:</td><td><div></div></td></tr><tr><td style="font-weight:bold;vertical-align:top;">version</td><td style="vertical-align:top;">:</td><td><div></div></td></tr></table></div></td></tr></table></div></td></tr><tr><td style="font-weight:bold;vertical-align:top;">env</td><td style="vertical-align:top;">:</td><td><div><table><tr><td style="font-weight:bold;vertical-align:top;">DOCUMENT_ROOT</td><td style="vertical-align:top;">:</td><td><div>/etc/apache2/htdocs</div></td></tr><tr><td style="font-weight:bold;vertical-align:top;">GATEWAY_INTERFACE</td><td style="vertical-align:top;">:</td><td><div>CGI/1.1</div></td></tr><tr><td style="font-weight:bold;vertical-align:top;">HTTPS</td><td style="vertical-align:top;">:</td><td><div>1</div></td></tr><tr><td style="font-weight:bold;vertical-align:top;">HTTP_ACCEPT</td><td style="vertical-align:top;">:</td><td><div>text/html,application/xhtml+xml,application/xml;q=0.9,image/webp,*/*;q=0.8</div></td></tr><tr><td style="font-weight:bold;vertical-align:top;">HTTP_ACCEPT_ENCODING</td><td style="vertical-align:top;">:</td><td><div>gzip,deflate,sdch</div></td></tr><tr><td style="font-weight:bold;vertical-align:top;">HTTP_ACCEPT_LANGUAGE</td><td style="vertical-align:top;">:</td><td><div>pt-BR,pt;q=0.8,en-US;q=0.6,en;q=0.4</div></td></tr><tr><td style="font-weight:bold;vertical-align:top;">HTTP_CONNECTION</td><td style="vertical-align:top;">:</td><td><div>keep-alive</div></td></tr><tr><td style="font-weight:bold;vertical-align:top;">HTTP_COOKIE</td><td style="vertical-align:top;">:</td><td><div>__utma=91351262.17937699.1371429018.1376765339.1376769892.4; _ga=GA1.2.17937699.1371429018; session_id_admin=200.156.24.244-0f66c04e-e287-43f5-a9f7-3c28c0c749d4; session_id_api=200.156.24.244-386283b1-715e-4852-a513-7e9d6ddaee50</div></td></tr><tr><td style="font-weight:bold;vertical-align:top;">HTTP_HOST</td><td style="vertical-align:top;">:</td><td><div>sistemas.unirio.br</div></td></tr><tr><td style="font-weight:bold;vertical-align:top;">HTTP_USER_AGENT</td><td style="vertical-align:top;">:</td><td><div>Mozilla/5.0 (Windows NT 6.1; WOW64) AppleWebKit/537.36 (KHTML, like Gecko) Chrome/36.0.1985.125 Safari/537.36</div></td></tr><tr><td style="font-weight:bold;vertical-align:top;">PATH_INFO</td><td style="vertical-align:top;">:</td><td><div>/api/default/rest/CURSOS.pdf</div></td></tr><tr><td style="font-weight:bold;vertical-align:top;">PATH_TRANSLATED</td><td style="vertical-align:top;">:</td><td><div>/home/www-data/web2py/wsgihandler.py/api/default/rest/CURSOS.pdf</div></td></tr><tr><td style="font-weight:bold;vertical-align:top;">QUERY_STRING</td><td style="vertical-align:top;">:</td><td><div></div></td></tr><tr><td style="font-weight:bold;vertical-align:top;">REMOTE_ADDR</td><td style="vertical-align:top;">:</td><td><div>200.156.24.244</div></td></tr><tr><td style="font-weight:bold;vertical-align:top;">REMOTE_PORT</td><td style="vertical-align:top;">:</td><td><div>39370</div></td></tr><tr><td style="font-weight:bold;vertical-align:top;">REQUEST_METHOD</td><td style="vertical-align:top;">:</td><td><div>GET</div></td></tr><tr><td style="font-weight:bold;vertical-align:top;">REQUEST_URI</td><td style="vertical-align:top;">:</td><td><div>/api/default/rest/CURSOS.pdf</div></td></tr><tr><td style="font-weight:bold;vertical-align:top;">SCRIPT_FILENAME</td><td style="vertical-align:top;">:</td><td><div>/home/www-data/web2py/wsgihandler.py</div></td></tr><tr><td style="font-weight:bold;vertical-align:top;">SCRIPT_NAME</td><td style="vertical-align:top;">:</td><td><div></div></td></tr><tr><td style="font-weight:bold;vertical-align:top;">SERVER_ADDR</td><td style="vertical-align:top;">:</td><td><div>200.156.24.169</div></td></tr><tr><td style="font-weight:bold;vertical-align:top;">SERVER_ADMIN</td><td style="vertical-align:top;">:</td><td><div>[no address given]</div></td></tr><tr><td style="font-weight:bold;vertical-align:top;">SERVER_NAME</td><td style="vertical-align:top;">:</td><td><div>sistemas.unirio.br</div></td></tr><tr><td style="font-weight:bold;vertical-align:top;">SERVER_PORT</td><td style="vertical-align:top;">:</td><td><div>443</div></td></tr><tr><td style="font-weight:bold;vertical-align:top;">SERVER_PROTOCOL</td><td style="vertical-align:top;">:</td><td><div>HTTP/1.1</div></td></tr><tr><td style="font-weight:bold;vertical-align:top;">SERVER_SIGNATURE</td><td style="vertical-align:top;">:</td><td><div>&lt;address&gt;Apache/2.2.22 (Ubuntu) Server at sistemas.unirio.br Port 443&lt;/address&gt;\n</div></td></tr><tr><td style="font-weight:bold;vertical-align:top;">SERVER_SOFTWARE</td><td style="vertical-align:top;">:</td><td><div>Apache/2.2.22 (Ubuntu)</div></td></tr><tr><td style="font-weight:bold;vertical-align:top;">SSL_TLS_SNI</td><td style="vertical-align:top;">:</td><td><div>sistemas.unirio.br</div></td></tr><tr><td style="font-weight:bold;vertical-align:top;">app_folders</td><td style="vertical-align:top;">:</td><td><div>set([&#x27;/home/www-data/web2py/applications/jic/&#x27;, &#x27;/home/www-data/web2py/applications/sisu2/&#x27;, &#x27;/home/www-data/web2py/applications/mobileAPI/&#x27;, &#x27;/home/www-data/web2py/applications/welcome/&#x27;, &#x27;/home/www-data/web2py/applications/admin/&#x27;, &#x27;/home/www-data/web2py/applications/processos/&#x27;, &#x27;/home/www-data/web2py/applications/avaliacao/&#x27;, &#x27;/home/www-data/web2py/applications/api/&#x27;])</div></td></tr><tr><td style="font-weight:bold;vertical-align:top;">applications_parent</td><td style="vertical-align:top;">:</td><td><div>/home/www-data/web2py</div></td></tr><tr><td style="font-weight:bold;vertical-align:top;">db_sessions</td><td style="vertical-align:top;">:</td><td><div>set([])</div></td></tr><tr><td style="font-weight:bold;vertical-align:top;">debugging</td><td style="vertical-align:top;">:</td><td><div>True</div></td></tr><tr><td style="font-weight:bold;vertical-align:top;">document_root</td><td style="vertical-align:top;">:</td><td><div>/etc/apache2/htdocs</div></td></tr><tr><td style="font-weight:bold;vertical-align:top;">gateway_interface</td><td style="vertical-align:top;">:</td><td><div>CGI/1.1</div></td></tr><tr><td style="font-weight:bold;vertical-align:top;">gluon_parent</td><td style="vertical-align:top;">:</td><td><div>/home/www-data/web2py</div></td></tr><tr><td style="font-weight:bold;vertical-align:top;">http_accept</td><td style="vertical-align:top;">:</td><td><div>text/html,application/xhtml+xml,application/xml;q=0.9,image/webp,*/*;q=0.8</div></td></tr><tr><td style="font-weight:bold;vertical-align:top;">http_accept_encoding</td><td style="vertical-align:top;">:</td><td><div>gzip,deflate,sdch</div></td></tr><tr><td style="font-weight:bold;vertical-align:top;">http_accept_language</td><td style="vertical-align:top;">:</td><td><div>pt-BR,pt;q=0.8,en-US;q=0.6,en;q=0.4</div></td></tr><tr><td style="font-weight:bold;vertical-align:top;">http_connection</td><td style="vertical-align:top;">:</td><td><div>keep-alive</div></td></tr><tr><td style="font-weight:bold;vertical-align:top;">http_cookie</td><td style="vertical-align:top;">:</td><td><div>__utma=91351262.17937699.1371429018.1376765339.1376769892.4; _ga=GA1.2.17937699.1371429018; session_id_admin=200.156.24.244-0f66c04e-e287-43f5-a9f7-3c28c0c749d4; session_id_api=200.156.24.244-386283b1-715e-4852-a513-7e9d6ddaee50</div></td></tr><tr><td style="font-weight:bold;vertical-align:top;">http_host</td><td style="vertical-align:top;">:</td><td><div>sistemas.unirio.br</div></td></tr><tr><td style="font-weight:bold;vertical-align:top;">http_user_agent</td><td style="vertical-align:top;">:</td><td><div>Mozilla/5.0 (Windows NT 6.1; WOW64) AppleWebKit/537.36 (KHTML, like Gecko) Chrome/36.0.1985.125 Safari/537.36</div></td></tr><tr><td style="font-weight:bold;vertical-align:top;">https</td><td style="vertical-align:top;">:</td><td><div>1</div></td></tr><tr><td style="font-weight:bold;vertical-align:top;">is_jython</td><td style="vertical-align:top;">:</td><td><div>False</div></td></tr><tr><td style="font-weight:bold;vertical-align:top;">is_pypy</td><td style="vertical-align:top;">:</td><td><div>False</div></td></tr><tr><td style="font-weight:bold;vertical-align:top;">is_source</td><td style="vertical-align:top;">:</td><td><div>True</div></td></tr><tr><td style="font-weight:bold;vertical-align:top;">local_hosts</td><td style="vertical-align:top;">:</td><td><div><table><tr><td><div>200.156.24.169</div></td></tr><tr><td><div>::ffff:127.0.0.1</div></td></tr><tr><td><div>::1</div></td></tr><tr><td><div>w2p</div></td></tr><tr><td><div>sistemas.unirio.br</div></td></tr><tr><td><div>127.0.0.1</div></td></tr></table></div></td></tr><tr><td style="font-weight:bold;vertical-align:top;">mod_wsgi.application_group</td><td style="vertical-align:top;">:</td><td><div>sistemas.unirio.br|</div></td></tr><tr><td style="font-weight:bold;vertical-align:top;">mod_wsgi.callable_object</td><td style="vertical-align:top;">:</td><td><div>application</div></td></tr><tr><td style="font-weight:bold;vertical-align:top;">mod_wsgi.handler_script</td><td style="vertical-align:top;">:</td><td><div></div></td></tr><tr><td style="font-weight:bold;vertical-align:top;">mod_wsgi.input_chunked</td><td style="vertical-align:top;">:</td><td><div>0</div></td></tr><tr><td style="font-weight:bold;vertical-align:top;">mod_wsgi.listener_host</td><td style="vertical-align:top;">:</td><td><div></div></td></tr><tr><td style="font-weight:bold;vertical-align:top;">mod_wsgi.listener_port</td><td style="vertical-align:top;">:</td><td><div>443</div></td></tr><tr><td style="font-weight:bold;vertical-align:top;">mod_wsgi.process_group</td><td style="vertical-align:top;">:</td><td><div>web2py</div></td></tr><tr><td style="font-weight:bold;vertical-align:top;">mod_wsgi.request_handler</td><td style="vertical-align:top;">:</td><td><div>wsgi-script</div></td></tr><tr><td style="font-weight:bold;vertical-align:top;">mod_wsgi.script_reloading</td><td style="vertical-align:top;">:</td><td><div>1</div></td></tr><tr><td style="font-weight:bold;vertical-align:top;">mod_wsgi.version</td><td style="vertical-align:top;">:</td><td><div><table><tr><td><div>3</div></td></tr><tr><td><div>3</div></td></tr></table></div></td></tr><tr><td style="font-weight:bold;vertical-align:top;">mod_wsgi_application_group</td><td style="vertical-align:top;">:</td><td><div>sistemas.unirio.br|</div></td></tr><tr><td style="font-weight:bold;vertical-align:top;">mod_wsgi_callable_object</td><td style="vertical-align:top;">:</td><td><div>application</div></td></tr><tr><td style="font-weight:bold;vertical-align:top;">mod_wsgi_handler_script</td><td style="vertical-align:top;">:</td><td><div></div></td></tr><tr><td style="font-weight:bold;vertical-align:top;">mod_wsgi_input_chunked</td><td style="vertical-align:top;">:</td><td><div>0</div></td></tr><tr><td style="font-weight:bold;vertical-align:top;">mod_wsgi_listener_host</td><td style="vertical-align:top;">:</td><td><div></div></td></tr><tr><td style="font-weight:bold;vertical-align:top;">mod_wsgi_listener_port</td><td style="vertical-align:top;">:</td><td><div>443</div></td></tr><tr><td style="font-weight:bold;vertical-align:top;">mod_wsgi_process_group</td><td style="vertical-align:top;">:</td><td><div>web2py</div></td></tr><tr><td style="font-weight:bold;vertical-align:top;">mod_wsgi_request_handler</td><td style="vertical-align:top;">:</td><td><div>wsgi-script</div></td></tr><tr><td style="font-weight:bold;vertical-align:top;">mod_wsgi_script_reloading</td><td style="vertical-align:top;">:</td><td><div>1</div></td></tr><tr><td style="font-weight:bold;vertical-align:top;">mod_wsgi_version</td><td style="vertical-align:top;">:</td><td><div><table><tr><td><div>3</div></td></tr><tr><td><div>3</div></td></tr></table></div></td></tr><tr><td style="font-weight:bold;vertical-align:top;">path_info</td><td style="vertical-align:top;">:</td><td><div>/api/default/rest/CURSOS.pdf</div></td></tr><tr><td style="font-weight:bold;vertical-align:top;">path_translated</td><td style="vertical-align:top;">:</td><td><div>/home/www-data/web2py/wsgihandler.py/api/default/rest/CURSOS.pdf</div></td></tr><tr><td style="font-weight:bold;vertical-align:top;">query_string</td><td style="vertical-align:top;">:</td><td><div></div></td></tr><tr><td style="font-weight:bold;vertical-align:top;">remote_addr</td><td style="vertical-align:top;">:</td><td><div>200.156.24.244</div></td></tr><tr><td style="font-weight:bold;vertical-align:top;">remote_port</td><td style="vertical-align:top;">:</td><td><div>39370</div></td></tr><tr><td style="font-weight:bold;vertical-align:top;">request_method</td><td style="vertical-align:top;">:</td><td><div>GET</div></td></tr><tr><td style="font-weight:bold;vertical-align:top;">request_uri</td><td style="vertical-align:top;">:</td><td><div>/api/default/rest/CURSOS.pdf</div></td></tr><tr><td style="font-weight:bold;vertical-align:top;">script_filename</td><td style="vertical-align:top;">:</td><td><div>/home/www-data/web2py/wsgihandler.py</div></td></tr><tr><td style="font-weight:bold;vertical-align:top;">script_name</td><td style="vertical-align:top;">:</td><td><div></div></td></tr><tr><td style="font-weight:bold;vertical-align:top;">server_addr</td><td style="vertical-align:top;">:</td><td><div>200.156.24.169</div></td></tr><tr><td style="font-weight:bold;vertical-align:top;">server_admin</td><td style="vertical-align:top;">:</td><td><div>[no address given]</div></td></tr><tr><td style="font-weight:bold;vertical-align:top;">server_name</td><td style="vertical-align:top;">:</td><td><div>sistemas.unirio.br</div></td></tr><tr><td style="font-weight:bold;vertical-align:top;">server_port</td><td style="vertical-align:top;">:</td><td><div>443</div></td></tr><tr><td style="font-weight:bold;vertical-align:top;">server_protocol</td><td style="vertical-align:top;">:</td><td><div>HTTP/1.1</div></td></tr><tr><td style="font-weight:bold;vertical-align:top;">server_signature</td><td style="vertical-align:top;">:</td><td><div>&lt;address&gt;Apache/2.2.22 (Ubuntu) Server at sistemas.unirio.br Port 443&lt;/address&gt;\n</div></td></tr><tr><td style="font-weight:bold;vertical-align:top;">server_software</td><td style="vertical-align:top;">:</td><td><div>Apache/2.2.22 (Ubuntu)</div></td></tr><tr><td style="font-weight:bold;vertical-align:top;">ssl_tls_sni</td><td style="vertical-align:top;">:</td><td><div>sistemas.unirio.br</div></td></tr><tr><td style="font-weight:bold;vertical-align:top;">web2py_path</td><td style="vertical-align:top;">:</td><td><div>/home/www-data/web2py</div></td></tr><tr><td style="font-weight:bold;vertical-align:top;">web2py_version</td><td style="vertical-align:top;">:</td><td><div>2.9.4-stable+timestamp.2014.03.05.04.44.09</div></td></tr><tr><td style="font-weight:bold;vertical-align:top;">wsgi.errors</td><td style="vertical-align:top;">:</td><td><div>&lt;mod_wsgi.Log object at 0x7fc3d4cb48f0&gt;</div></td></tr><tr><td style="font-weight:bold;vertical-align:top;">wsgi.file_wrapper</td><td style="vertical-align:top;">:</td><td><div>&lt;built-in method file_wrapper of mod_wsgi.Adapter object at 0x7fc3d70a8288&gt;</div></td></tr><tr><td style="font-weight:bold;vertical-align:top;">wsgi.input</td><td style="vertical-align:top;">:</td><td><div>&lt;mod_wsgi.Input object at 0x7fc3d4cb4770&gt;</div></td></tr><tr><td style="font-weight:bold;vertical-align:top;">wsgi.multiprocess</td><td style="vertical-align:top;">:</td><td><div>True</div></td></tr><tr><td style="font-weight:bold;vertical-align:top;">wsgi.multithread</td><td style="vertical-align:top;">:</td><td><div>False</div></td></tr><tr><td style="font-weight:bold;vertical-align:top;">wsgi.run_once</td><td style="vertical-align:top;">:</td><td><div>False</div></td></tr><tr><td style="font-weight:bold;vertical-align:top;">wsgi.url_scheme</td><td style="vertical-align:top;">:</td><td><div>https</div></td></tr><tr><td style="font-weight:bold;vertical-align:top;">wsgi.version</td><td style="vertical-align:top;">:</td><td><div><table><tr><td><div>1</div></td></tr><tr><td><div>1</div></td></tr></table></div></td></tr><tr><td style="font-weight:bold;vertical-align:top;">wsgi_errors</td><td style="vertical-align:top;">:</td><td><div>&lt;mod_wsgi.Log object at 0x7fc3d4cb48f0&gt;</div></td></tr><tr><td style="font-weight:bold;vertical-align:top;">wsgi_file_wrapper</td><td style="vertical-align:top;">:</td><td><div>&lt;built-in method file_wrapper of mod_wsgi.Adapter object at 0x7fc3d70a8288&gt;</div></td></tr><tr><td style="font-weight:bold;vertical-align:top;">wsgi_input</td><td style="vertical-align:top;">:</td><td><div>&lt;mod_wsgi.Input object at 0x7fc3d4cb4770&gt;</div></td></tr><tr><td style="font-weight:bold;vertical-align:top;">wsgi_multiprocess</td><td style="vertical-align:top;">:</td><td><div>True</div></td></tr><tr><td style="font-weight:bold;vertical-align:top;">wsgi_multithread</td><td style="vertical-align:top;">:</td><td><div>False</div></td></tr><tr><td style="font-weight:bold;vertical-align:top;">wsgi_run_once</td><td style="vertical-align:top;">:</td><td><div>False</div></td></tr><tr><td style="font-weight:bold;vertical-align:top;">wsgi_url_scheme</td><td style="vertical-align:top;">:</td><td><div>https</div></td></tr><tr><td style="font-weight:bold;vertical-align:top;">wsgi_version</td><td style="vertical-align:top;">:</td><td><div><table><tr><td><div>1</div></td></tr><tr><td><div>1</div></td></tr></table></div></td></tr></table></div></td></tr><tr><td style="font-weight:bold;vertical-align:top;">extension</td><td style="vertical-align:top;">:</td><td><div>pdf</div></td></tr><tr><td style="font-weight:bold;vertical-align:top;">folder</td><td style="vertical-align:top;">:</td><td><div>/home/www-data/web2py/applications/api/</div></td></tr><tr><td style="font-weight:bold;vertical-align:top;">function</td><td style="vertical-align:top;">:</td><td><div>rest</div></td></tr><tr><td style="font-weight:bold;vertical-align:top;">global_settings</td><td style="vertical-align:top;">:</td><td><div><table><tr><td style="font-weight:bold;vertical-align:top;">app_folders</td><td style="vertical-align:top;">:</td><td><div>set([&#x27;/home/www-data/web2py/applications/jic/&#x27;, &#x27;/home/www-data/web2py/applications/sisu2/&#x27;, &#x27;/home/www-data/web2py/applications/mobileAPI/&#x27;, &#x27;/home/www-data/web2py/applications/welcome/&#x27;, &#x27;/home/www-data/web2py/applications/admin/&#x27;, &#x27;/home/www-data/web2py/applications/processos/&#x27;, &#x27;/home/www-data/web2py/applications/avaliacao/&#x27;, &#x27;/home/www-data/web2py/applications/api/&#x27;])</div></td></tr><tr><td style="font-weight:bold;vertical-align:top;">applications_parent</td><td style="vertical-align:top;">:</td><td><div>/home/www-data/web2py</div></td></tr><tr><td style="font-weight:bold;vertical-align:top;">db_sessions</td><td style="vertical-align:top;">:</td><td><div>set([])</div></td></tr><tr><td style="font-weight:bold;vertical-align:top;">debugging</td><td style="vertical-align:top;">:</td><td><div>True</div></td></tr><tr><td style="font-weight:bold;vertical-align:top;">gluon_parent</td><td style="vertical-align:top;">:</td><td><div>/home/www-data/web2py</div></td></tr><tr><td style="font-weight:bold;vertical-align:top;">is_jython</td><td style="vertical-align:top;">:</td><td><div>False</div></td></tr><tr><td style="font-weight:bold;vertical-align:top;">is_pypy</td><td style="vertical-align:top;">:</td><td><div>False</div></td></tr><tr><td style="font-weight:bold;vertical-align:top;">is_source</td><td style="vertical-align:top;">:</td><td><div>True</div></td></tr><tr><td style="font-weight:bold;vertical-align:top;">local_hosts</td><td style="vertical-align:top;">:</td><td><div><table><tr><td><div>200.156.24.169</div></td></tr><tr><td><div>::ffff:127.0.0.1</div></td></tr><tr><td><div>::1</div></td></tr><tr><td><div>w2p</div></td></tr><tr><td><div>sistemas.unirio.br</div></td></tr><tr><td><div>127.0.0.1</div></td></tr></table></div></td></tr><tr><td style="font-weight:bold;vertical-align:top;">web2py_version</td><td style="vertical-align:top;">:</td><td><div>2.9.4-stable+timestamp.2014.03.05.04.44.09</div></td></tr></table></div></td></tr><tr><td style="font-weight:bold;vertical-align:top;">is_https</td><td style="vertical-align:top;">:</td><td><div>True</div></td></tr><tr><td style="font-weight:bold;vertical-align:top;">is_local</td><td style="vertical-align:top;">:</td><td><div>False</div></td></tr><tr><td style="font-weight:bold;vertical-align:top;">is_restful</td><td style="vertical-align:top;">:</td><td><div>True</div></td></tr><tr><td style="font-weight:bold;vertical-align:top;">now</td><td style="vertical-align:top;">:</td><td><div>datetime.datetime(2014, 8, 9, 0, 59, 26, 124137)</div></td></tr><tr><td style="font-weight:bold;vertical-align:top;">raw_args</td><td style="vertical-align:top;">:</td><td><div>CURSOS.pdf</div></td></tr><tr><td style="font-weight:bold;vertical-align:top;">raw_extension</td><td style="vertical-align:top;">:</td><td><div>None</div></td></tr><tr><td style="font-weight:bold;vertical-align:top;">url</td><td style="vertical-align:top;">:</td><td><div>/api/default/rest/CURSOS.pdf</div></td></tr><tr><td style="font-weight:bold;vertical-align:top;">utcnow</td><td style="vertical-align:top;">:</td><td><div>datetime.datetime(2014, 8, 9, 3, 59, 26, 124160)</div></td></tr><tr><td style="font-weight:bold;vertical-align:top;">uuid</td><td style="vertical-align:top;">:</td><td><div>api/200.156.24.244.2014-08-09.00-59-26.4181a002-4c03-4afc-98cf-0fc398f2de94</div></td></tr><tr><td style="font-weight:bold;vertical-align:top;">wsgi</td><td style="vertical-align:top;">:</td><td><div>&lt;gluon.main.LazyWSGI object at 0x7fc3d6f56750&gt;</div></td></tr></table></div>'
tRp58
sS'frames'
p59
(lp60
(dp61
S'file'
p62
S'/home/www-data/web2py/gluon/restricted.py'
p63
sS'dump'
p64
(dp65
S'environment'
p66
S"{'A': <class 'gluon.html.A'>, 'ANY_OF': <class 'gluon.validators.ANY_OF'>, 'Auth': <class 'gluon.tools.Auth'>, 'B': <class 'gluon.html.B'>, 'BEAUTIFY': <class 'gluon.html.BEAUTIFY'>, 'BODY': <class 'gluon.html.BODY'>, 'BR': <class 'gluon.html.BR'>, 'BUTTON': <class 'gluon.html.BUTTON'>, 'CAT': <class 'gluon.html.CAT'>, 'CENTER': <class 'gluon.html.CENTER'>, ...}"
p67
sS'ccode'
p68
S'<code object <module> at 0x7fc3d75d9930, file "/...b2py/applications/api/views/generic.pdf", line 1>'
p69
ssS'lnum'
p70
I217
sS'lines'
p71
(dp72
I212
S'    try:'
p73
sI213
S'        if isinstance(code, types.CodeType):'
p74
sI214
S'            ccode = code'
p75
sI215
S'        else:'
p76
sI216
S'            ccode = compile2(code, layer)'
p77
sI217
S'        exec ccode in environment'
p78
sI218
S'    except HTTP:'
p79
sI219
S'        raise'
p80
sI220
S'    except RestrictedError:'
p81
sI221
S'        # do not encapsulate (obfuscate) the original RestrictedError'
p82
ssS'call'
p83
S'(code="import os\\nfrom gluon.contrib.generics import pdf...om_html(html))\\nresponse.write(\'\\\\n\', escape=False)", environment={\'A\': <class \'gluon.html.A\'>, \'ANY_OF\': <class \'gluon.validators.ANY_OF\'>, \'Auth\': <class \'gluon.tools.Auth\'>, \'B\': <class \'gluon.html.B\'>, \'BEAUTIFY\': <class \'gluon.html.BEAUTIFY\'>, \'BODY\': <class \'gluon.html.BODY\'>, \'BR\': <class \'gluon.html.BR\'>, \'BUTTON\': <class \'gluon.html.BUTTON\'>, \'CAT\': <class \'gluon.html.CAT\'>, \'CENTER\': <class \'gluon.html.CENTER\'>, ...}, layer=\'/home/www-data/web2py/applications/api/views/generic.pdf\')'
p84
sS'func'
p85
S'restricted'
p86
sa(dp87
g62
S'/home/www-data/web2py/applications/api/views/generic.pdf'
p88
sg64
(dp89
sg70
I9
sg71
(dp90
I2
S'import os'
p91
sI3
S'from gluon.contrib.generics import pdf_from_html'
p92
sI4
S"filename = '%s/%s.html' % (request.controller,request.function)"
p93
sI5
S"if os.path.exists(os.path.join(request.folder,'views',filename)):"
p94
sI6
S'   html=response.render(filename)'
p95
sI7
S'else:'
p96
sI8
S'   html=BODY(BEAUTIFY(response._vars)).xml()'
p97
sI9
S'pass'
p98
sI10
S'=pdf_from_html(html)'
p99
sI11
S'}}'
p100
ssg83
S'()'
p101
sg85
S'<module>'
p102
sa(dp103
g62
S'/home/www-data/web2py/gluon/contrib/generics.py'
p104
sg64
(dp105
S'html'
p106
S'\'<body><div><table><tr><td style="font-weight:bol...ody></table></div></td></tr></table></div></body>\''
p107
sS'global pyfpdf_from_html'
p108
S'<function pyfpdf_from_html>'
p109
ssg70
I72
sg71
(dp110
I64
S"    return XML(pdf.output(dest='S'))"
p111
sI65
S''
sI66
S''
sI67
S'def pdf_from_html(html):'
p112
sI68
S'    # try use latex and pdflatex'
p113
sI69
S"    if os.system('which pdflatex > /dev/null') == 0:"
p114
sI70
S'        return pdflatex_from_html(html)'
p115
sI71
S'    else:'
p116
sI72
S'        return pyfpdf_from_html(html)'
p117
sI63
S'    pdf.write_html(html, image_map=image_map)'
p118
ssg83
S'(html=\'<body><div><table><tr><td style="font-weight:bol...ody></table></div></td></tr></table></div></body>\')'
p119
sg85
S'pdf_from_html'
p120
sa(dp121
g62
S'/home/www-data/web2py/gluon/contrib/generics.py'
p122
sg64
(dp123
S'pdf'
p124
S'<gluon.contrib.generics.MyFPDF object>'
p125
sS'html'
p126
S"'<div><table><tr><td></td><td></td><td><div><tabl...tr></tbody></table></div></td></tr></table></div>'"
p127
sS'image_map'
p128
S'<function image_map>'
p129
sS'pdf.write_html'
p130
S'<bound method MyFPDF.write_html of <gluon.contrib.generics.MyFPDF object>>'
p131
ssg70
I63
sg71
(dp132
I64
S"    return XML(pdf.output(dest='S'))"
p133
sI65
S''
sI66
S''
sI67
S'def pdf_from_html(html):'
p134
sI58
S'        pass'
p135
sI59
S'    pdf = MyFPDF()'
p136
sI60
S'    pdf.add_page()'
p137
sI61
S'    html = sanitize('
p138
sI62
S'        html, escape=False)  # should have better list of allowed tags'
p139
sI63
S'    pdf.write_html(html, image_map=image_map)'
p140
ssg83
S"(html='<div><table><tr><td></td><td></td><td><div><tabl...tr></tbody></table></div></td></tr></table></div>')"
p141
sg85
S'pyfpdf_from_html'
p142
sa(dp143
g62
S'/home/www-data/web2py/gluon/contrib/fpdf/html.py'
p144
sg64
(dp145
S'h2p.feed'
p146
S'<bound method HTML2FPDF.feed of <gluon.contrib.fpdf.html.HTML2FPDF instance>>'
p147
sS'text'
p148
S"'<div><table><tr><td></td><td></td><td><div><tabl...tr></tbody></table></div></td></tr></table></div>'"
p149
sS'h2p'
p150
S'<gluon.contrib.fpdf.html.HTML2FPDF instance>'
p151
ssg70
I397
sg71
(dp152
I389
S'        self.pdf.ln(2)'
p153
sI390
S'        self.pdf.line(self.pdf.get_x(),self.pdf.get_y(),self.pdf.get_x()+187,self.pdf.get_y())'
p154
sI391
S'        self.pdf.ln(3)'
p155
sI392
S''
sI393
S'class HTMLMixin(object):'
p156
sI394
S'    def write_html(self, text, image_map=None):'
p157
sI395
S'        "Parse HTML and convert it to PDF"'
p158
sI396
S'        h2p = HTML2FPDF(self, image_map)'
p159
sI397
S'        h2p.feed(text)'
p160
sI398
S''
ssg83
S"(self=<gluon.contrib.generics.MyFPDF object>, text='<div><table><tr><td></td><td></td><td><div><tabl...tr></tbody></table></div></td></tr></table></div>', image_map=<function image_map>)"
p161
sg85
S'write_html'
p162
sa(dp163
g62
S'/usr/lib/python2.7/HTMLParser.py'
p164
sg64
(dp165
S'self.goahead'
p166
S'<bound method HTML2FPDF.goahead of <gluon.contrib.fpdf.html.HTML2FPDF instance>>'
p167
sS'self'
p168
S'<gluon.contrib.fpdf.html.HTML2FPDF instance>'
p169
ssg70
I114
sg71
(dp170
I109
S''
sI110
S'        Call this as often as you want, with as little or as much text'
p171
sI111
S"        as you want (may include '\\n')."
p172
sI112
S'        """'
p173
sI113
S'        self.rawdata = self.rawdata + data'
p174
sI114
S'        self.goahead(0)'
p175
sI115
S''
sI116
S'    def close(self):'
p176
sI117
S'        """Handle any buffered data."""'
p177
sI118
S'        self.goahead(1)'
p178
ssg83
S"(self=<gluon.contrib.fpdf.html.HTML2FPDF instance>, data='<div><table><tr><td></td><td></td><td><div><tabl...tr></tbody></table></div></td></tr></table></div>')"
p179
sg85
S'feed'
p180
sa(dp181
g62
S'/usr/lib/python2.7/HTMLParser.py'
p182
sg64
(dp183
S'i'
S'89'
p184
sS'self'
p185
S'<gluon.contrib.fpdf.html.HTML2FPDF instance>'
p186
sS'j'
S'90'
p187
sS'self.handle_data'
p188
S'<bound method HTML2FPDF.handle_data of <gluon.contrib.fpdf.html.HTML2FPDF instance>>'
p189
sS'rawdata'
p190
S"'<div><table><tr><td></td><td></td><td><div><tabl...tr></tbody></table></div></td></tr></table></div>'"
p191
ssg70
I152
sg71
(dp192
I147
S'                j = match.start()'
p193
sI148
S'            else:'
p194
sI149
S'                if self.cdata_elem:'
p195
sI150
S'                    break'
p196
sI151
S'                j = n'
p197
sI152
S'            if i < j: self.handle_data(rawdata[i:j])'
p198
sI153
S'            i = self.updatepos(i, j)'
p199
sI154
S'            if i == n: break'
p200
sI155
S'            startswith = rawdata.startswith'
p201
sI156
S"            if startswith('<', i):"
p202
ssg83
S'(self=<gluon.contrib.fpdf.html.HTML2FPDF instance>, end=0)'
p203
sg85
S'goahead'
p204
sa(dp205
g62
S'/home/www-data/web2py/gluon/contrib/fpdf/html.py'
p206
sg64
(dp207
S'builtinRuntimeError'
p208
S"<type 'exceptions.RuntimeError'>"
p209
ssg70
I74
sg71
(dp210
I69
S'        if self.td is not None: # drawing a table?'
p211
sI70
S"            if 'width' not in self.td and 'colspan' not in self.td:"
p212
sI71
S'                try:'
p213
sI72
S'                    l = [self.table_col_width[self.table_col_index]]'
p214
sI73
S'                except IndexError:'
p215
sI74
S'                    raise RuntimeError("Table column/cell width not specified, unable to continue")'
p216
sI75
S"            elif 'colspan' in self.td:"
p217
sI76
S'                i = self.table_col_index'
p218
sI77
S"                colspan = int(self.td['colspan'])"
p219
sI78
S'                l = self.table_col_width[i:i+colspan]'
p220
ssg83
S"(self=<gluon.contrib.fpdf.html.HTML2FPDF instance>, txt='1')"
p221
sg85
S'handle_data'
p222
sasS'pyver'
p223
S'Python 2.7.3: /usr/bin/python (prefix: /usr)'
p224
sS'session'
p225
g57
(S's\x1a\x00\x00\x00<div><table></table></div>'
tRp226
sS'etype'
p227
S"<type 'exceptions.RuntimeError'>"
p228
sS'date'
p229
S'Sat Aug  9 00:59:28 2014'
p230
sS'response'
p231
g57
(S's\xf1\x1c\x00\x00<div><table><tr><td style="font-weight:bold;vertical-align:top;">body</td><td style="vertical-align:top;">:</td><td><div>&lt;cStringIO.StringO object at 0x7fc3d754f490&gt;</div></td></tr><tr><td style="font-weight:bold;vertical-align:top;">cookies</td><td style="vertical-align:top;">:</td><td><div><table><tr><td style="font-weight:bold;vertical-align:top;">session_id_api</td><td style="vertical-align:top;">:</td><td><div>200.156.24.244-386283b1-715e-4852-a513-7e9d6ddaee50<table><tr><td style="font-weight:bold;vertical-align:top;">comment</td><td style="vertical-align:top;">:</td><td><div></div></td></tr><tr><td style="font-weight:bold;vertical-align:top;">domain</td><td style="vertical-align:top;">:</td><td><div></div></td></tr><tr><td style="font-weight:bold;vertical-align:top;">expires</td><td style="vertical-align:top;">:</td><td><div></div></td></tr><tr><td style="font-weight:bold;vertical-align:top;">httponly</td><td style="vertical-align:top;">:</td><td><div></div></td></tr><tr><td style="font-weight:bold;vertical-align:top;">max-age</td><td style="vertical-align:top;">:</td><td><div></div></td></tr><tr><td style="font-weight:bold;vertical-align:top;">path</td><td style="vertical-align:top;">:</td><td><div>/</div></td></tr><tr><td style="font-weight:bold;vertical-align:top;">secure</td><td style="vertical-align:top;">:</td><td><div></div></td></tr><tr><td style="font-weight:bold;vertical-align:top;">version</td><td style="vertical-align:top;">:</td><td><div></div></td></tr></table></div></td></tr></table></div></td></tr><tr><td style="font-weight:bold;vertical-align:top;">delimiters</td><td style="vertical-align:top;">:</td><td><div><table><tr><td><div>{{</div></td></tr><tr><td><div>}}</div></td></tr></table></div></td></tr><tr><td style="font-weight:bold;vertical-align:top;">files</td><td style="vertical-align:top;">:</td><td><div><table></table></div></td></tr><tr><td style="font-weight:bold;vertical-align:top;">flash</td><td style="vertical-align:top;">:</td><td><div></div></td></tr><tr><td style="font-weight:bold;vertical-align:top;">generic_patterns</td><td style="vertical-align:top;">:</td><td><div><table><tr><td><div>*</div></td></tr></table></div></td></tr><tr><td style="font-weight:bold;vertical-align:top;">google_analytics_id</td><td style="vertical-align:top;">:</td><td><div>None</div></td></tr><tr><td style="font-weight:bold;vertical-align:top;">headers</td><td style="vertical-align:top;">:</td><td><div><table><tr><td style="font-weight:bold;vertical-align:top;">Content-Type</td><td style="vertical-align:top;">:</td><td><div>application/pdf</div></td></tr><tr><td style="font-weight:bold;vertical-align:top;">X-Powered-By</td><td style="vertical-align:top;">:</td><td><div>web2py</div></td></tr></table></div></td></tr><tr><td style="font-weight:bold;vertical-align:top;">logo</td><td style="vertical-align:top;">:</td><td><div><a class="brand" href="http://www.web2py.com/"><b>web<span>2</span>py</b>&trade;&nbsp;</a></div></td></tr><tr><td style="font-weight:bold;vertical-align:top;">menu</td><td style="vertical-align:top;">:</td><td><div><table><tr><td><div><table><tr><td><div>Home</div></td></tr><tr><td><div>False</div></td></tr><tr><td><div>/api/default/index</div></td></tr><tr><td><div><table></table></div></td></tr></table></div></td></tr></table></div></td></tr><tr><td style="font-weight:bold;vertical-align:top;">meta</td><td style="vertical-align:top;">:</td><td><div><table><tr><td style="font-weight:bold;vertical-align:top;">author</td><td style="vertical-align:top;">:</td><td><div>Your Name &lt;you@example.com&gt;</div></td></tr><tr><td style="font-weight:bold;vertical-align:top;">description</td><td style="vertical-align:top;">:</td><td><div>a cool new app</div></td></tr><tr><td style="font-weight:bold;vertical-align:top;">generator</td><td style="vertical-align:top;">:</td><td><div>Web2py Web Framework</div></td></tr><tr><td style="font-weight:bold;vertical-align:top;">keywords</td><td style="vertical-align:top;">:</td><td><div>web2py, python, framework</div></td></tr></table></div></td></tr><tr><td style="font-weight:bold;vertical-align:top;">models_to_run</td><td style="vertical-align:top;">:</td><td><div><table><tr><td><div>^\\w+\\.py$</div></td></tr><tr><td><div>^default/\\w+\\.py$</div></td></tr><tr><td><div>^default/rest/\\w+\\.py$</div></td></tr></table></div></td></tr><tr><td style="font-weight:bold;vertical-align:top;">postprocessing</td><td style="vertical-align:top;">:</td><td><div><table></table></div></td></tr><tr><td style="font-weight:bold;vertical-align:top;">session_client</td><td style="vertical-align:top;">:</td><td><div>200.156.24.244</div></td></tr><tr><td style="font-weight:bold;vertical-align:top;">session_cookie_compression_level</td><td style="vertical-align:top;">:</td><td><div>None</div></td></tr><tr><td style="font-weight:bold;vertical-align:top;">session_cookie_expires</td><td style="vertical-align:top;">:</td><td><div>None</div></td></tr><tr><td style="font-weight:bold;vertical-align:top;">session_cookie_key</td><td style="vertical-align:top;">:</td><td><div>None</div></td></tr><tr><td style="font-weight:bold;vertical-align:top;">session_data_name</td><td style="vertical-align:top;">:</td><td><div>session_data_api</div></td></tr><tr><td style="font-weight:bold;vertical-align:top;">session_file</td><td style="vertical-align:top;">:</td><td><div>&lt;open file &#x27;/home/www-data/web2py/applications/api/sessions/200.156.24.244-386283b1-715e-4852-a513-7e9d6ddaee50&#x27;, mode &#x27;rb+&#x27; at 0x7fc3d69fe030&gt;</div></td></tr><tr><td style="font-weight:bold;vertical-align:top;">session_filename</td><td style="vertical-align:top;">:</td><td><div>/home/www-data/web2py/applications/api/sessions/200.156.24.244-386283b1-715e-4852-a513-7e9d6ddaee50</div></td></tr><tr><td style="font-weight:bold;vertical-align:top;">session_hash</td><td style="vertical-align:top;">:</td><td><div>928be1bec95f05e9f82a798a26cdb076</div></td></tr><tr><td style="font-weight:bold;vertical-align:top;">session_id</td><td style="vertical-align:top;">:</td><td><div>200.156.24.244-386283b1-715e-4852-a513-7e9d6ddaee50</div></td></tr><tr><td style="font-weight:bold;vertical-align:top;">session_id_name</td><td style="vertical-align:top;">:</td><td><div>session_id_api</div></td></tr><tr><td style="font-weight:bold;vertical-align:top;">session_locked</td><td style="vertical-align:top;">:</td><td><div>True</div></td></tr><tr><td style="font-weight:bold;vertical-align:top;">session_masterapp</td><td style="vertical-align:top;">:</td><td><div>api</div></td></tr><tr><td style="font-weight:bold;vertical-align:top;">session_new</td><td style="vertical-align:top;">:</td><td><div>False</div></td></tr><tr><td style="font-weight:bold;vertical-align:top;">session_storage_type</td><td style="vertical-align:top;">:</td><td><div>file</div></td></tr><tr><td style="font-weight:bold;vertical-align:top;">status</td><td style="vertical-align:top;">:</td><td><div>200</div></td></tr><tr><td style="font-weight:bold;vertical-align:top;">subtitle</td><td style="vertical-align:top;">:</td><td><div></div></td></tr><tr><td style="font-weight:bold;vertical-align:top;">title</td><td style="vertical-align:top;">:</td><td><div>Api</div></td></tr><tr><td style="font-weight:bold;vertical-align:top;">view</td><td style="vertical-align:top;">:</td><td><div>generic.pdf</div></td></tr></table></div>'
tRp232
sS'locals'
p233
(dp234
S'self'
p235
S'<gluon.contrib.fpdf.html.HTML2FPDF instance>'
p236
sS'txt'
p237
S"'1'"
p238
sssS'traceback'
p239
S'Traceback (most recent call last):\n  File "/home/www-data/web2py/gluon/restricted.py", line 217, in restricted\n    exec ccode in environment\n  File "/home/www-data/web2py/applications/api/views/generic.pdf", line 9, in <module>\n    pass\n  File "/home/www-data/web2py/gluon/contrib/generics.py", line 72, in pdf_from_html\n    return pyfpdf_from_html(html)\n  File "/home/www-data/web2py/gluon/contrib/generics.py", line 63, in pyfpdf_from_html\n    pdf.write_html(html, image_map=image_map)\n  File "/home/www-data/web2py/gluon/contrib/fpdf/html.py", line 397, in write_html\n    h2p.feed(text)\n  File "/usr/lib/python2.7/HTMLParser.py", line 114, in feed\n    self.goahead(0)\n  File "/usr/lib/python2.7/HTMLParser.py", line 152, in goahead\n    if i < j: self.handle_data(rawdata[i:j])\n  File "/home/www-data/web2py/gluon/contrib/fpdf/html.py", line 74, in handle_data\n    raise RuntimeError("Table column/cell width not specified, unable to continue")\nRuntimeError: Table column/cell width not specified, unable to continue\n'
p240
s.